SF:/Volumes/Files_1/iron-beam/rust-conversion/rust/usecases/usecases_bifs/src/checksum.rs
FN:235,_RNvNtNtCsiy5cjwWxIM5_13usecases_bifs8checksum5testss_14test_md5_basic
FN:243,_RNvNtNtCsiy5cjwWxIM5_13usecases_bifs8checksum5testss_14test_md5_empty
FN:173,_RNvNtNtCsiy5cjwWxIM5_13usecases_bifs8checksum5testss_16test_crc32_basic
FN:180,_RNvNtNtCsiy5cjwWxIM5_13usecases_bifs8checksum5testss_16test_crc32_empty
FN:199,_RNvNtNtCsiy5cjwWxIM5_13usecases_bifs8checksum5testss_18test_adler32_basic
FN:206,_RNvNtNtCsiy5cjwWxIM5_13usecases_bifs8checksum5testss_18test_adler32_empty
FN:223,_RNvNtNtCsiy5cjwWxIM5_13usecases_bifs8checksum5testss_20test_adler32_combine
FN:255,_RNvNtNtCsiy5cjwWxIM5_13usecases_bifs8checksum5testss_20test_md5_incremental
FN:187,_RNvNtNtCsiy5cjwWxIM5_13usecases_bifs8checksum5testss_23test_crc32_with_initial
FN:213,_RNvNtNtCsiy5cjwWxIM5_13usecases_bifs8checksum5testss_25test_adler32_with_initial
FN:267,_RNvNtNtCsiy5cjwWxIM5_13usecases_bifs8checksum5testss_30test_crc32_combine_zero_length
FN:275,_RNvNtNtCsiy5cjwWxIM5_13usecases_bifs8checksum5testss_32test_adler32_combine_zero_length
FN:53,_RNvMNtCsiy5cjwWxIM5_13usecases_bifs8checksumNtB2_11ChecksumBif13crc32_combine
FN:102,_RNvMNtCsiy5cjwWxIM5_13usecases_bifs8checksumNtB2_11ChecksumBif15adler32_combine
FN:38,_RNvMNtCsiy5cjwWxIM5_13usecases_bifs8checksumNtB2_11ChecksumBif18crc32_with_initial
FN:87,_RNvMNtCsiy5cjwWxIM5_13usecases_bifs8checksumNtB2_11ChecksumBif20adler32_with_initial
FN:130,_RNvMNtCsiy5cjwWxIM5_13usecases_bifs8checksumNtB2_11ChecksumBif3md5
FN:24,_RNvMNtCsiy5cjwWxIM5_13usecases_bifs8checksumNtB2_11ChecksumBif5crc32
FN:73,_RNvMNtCsiy5cjwWxIM5_13usecases_bifs8checksumNtB2_11ChecksumBif7adler32
FN:138,_RNvMNtCsiy5cjwWxIM5_13usecases_bifs8checksumNtB2_11ChecksumBif7md5_new
FN:150,_RNvMs_NtCsiy5cjwWxIM5_13usecases_bifs8checksumNtB4_10Md5Context3new
FN:157,_RNvMs_NtCsiy5cjwWxIM5_13usecases_bifs8checksumNtB4_10Md5Context6update
FN:162,_RNvMs_NtCsiy5cjwWxIM5_13usecases_bifs8checksumNtB4_10Md5Context8finalize
FNDA:1,_RNvNtNtCsiy5cjwWxIM5_13usecases_bifs8checksum5testss_14test_md5_basic
FNDA:1,_RNvNtNtCsiy5cjwWxIM5_13usecases_bifs8checksum5testss_14test_md5_empty
FNDA:1,_RNvNtNtCsiy5cjwWxIM5_13usecases_bifs8checksum5testss_16test_crc32_basic
FNDA:1,_RNvNtNtCsiy5cjwWxIM5_13usecases_bifs8checksum5testss_16test_crc32_empty
FNDA:1,_RNvNtNtCsiy5cjwWxIM5_13usecases_bifs8checksum5testss_18test_adler32_basic
FNDA:1,_RNvNtNtCsiy5cjwWxIM5_13usecases_bifs8checksum5testss_18test_adler32_empty
FNDA:1,_RNvNtNtCsiy5cjwWxIM5_13usecases_bifs8checksum5testss_20test_adler32_combine
FNDA:1,_RNvNtNtCsiy5cjwWxIM5_13usecases_bifs8checksum5testss_20test_md5_incremental
FNDA:1,_RNvNtNtCsiy5cjwWxIM5_13usecases_bifs8checksum5testss_23test_crc32_with_initial
FNDA:1,_RNvNtNtCsiy5cjwWxIM5_13usecases_bifs8checksum5testss_25test_adler32_with_initial
FNDA:1,_RNvNtNtCsiy5cjwWxIM5_13usecases_bifs8checksum5testss_30test_crc32_combine_zero_length
FNDA:1,_RNvNtNtCsiy5cjwWxIM5_13usecases_bifs8checksum5testss_32test_adler32_combine_zero_length
FNDA:1,_RNvMNtCsiy5cjwWxIM5_13usecases_bifs8checksumNtB2_11ChecksumBif13crc32_combine
FNDA:2,_RNvMNtCsiy5cjwWxIM5_13usecases_bifs8checksumNtB2_11ChecksumBif15adler32_combine
FNDA:1,_RNvMNtCsiy5cjwWxIM5_13usecases_bifs8checksumNtB2_11ChecksumBif18crc32_with_initial
FNDA:1,_RNvMNtCsiy5cjwWxIM5_13usecases_bifs8checksumNtB2_11ChecksumBif20adler32_with_initial
FNDA:3,_RNvMNtCsiy5cjwWxIM5_13usecases_bifs8checksumNtB2_11ChecksumBif3md5
FNDA:6,_RNvMNtCsiy5cjwWxIM5_13usecases_bifs8checksumNtB2_11ChecksumBif5crc32
FNDA:9,_RNvMNtCsiy5cjwWxIM5_13usecases_bifs8checksumNtB2_11ChecksumBif7adler32
FNDA:1,_RNvMNtCsiy5cjwWxIM5_13usecases_bifs8checksumNtB2_11ChecksumBif7md5_new
FNDA:1,_RNvMs_NtCsiy5cjwWxIM5_13usecases_bifs8checksumNtB4_10Md5Context3new
FNDA:2,_RNvMs_NtCsiy5cjwWxIM5_13usecases_bifs8checksumNtB4_10Md5Context6update
FNDA:1,_RNvMs_NtCsiy5cjwWxIM5_13usecases_bifs8checksumNtB4_10Md5Context8finalize
FNF:23
FNH:23
DA:24,6
DA:25,6
DA:26,6
DA:27,6
DA:28,6
DA:38,1
DA:39,1
DA:40,1
DA:41,1
DA:42,1
DA:53,1
DA:57,1
DA:58,1
DA:59,0
DA:63,0
DA:64,1
DA:73,9
DA:74,9
DA:75,9
DA:76,9
DA:77,9
DA:87,1
DA:88,1
DA:89,1
DA:90,1
DA:91,1
DA:102,2
DA:103,2
DA:104,1
DA:105,1
DA:108,1
DA:109,1
DA:110,1
DA:111,1
DA:112,1
DA:114,1
DA:115,1
DA:117,1
DA:118,1
DA:120,1
DA:121,2
DA:130,3
DA:131,3
DA:132,3
DA:133,3
DA:138,1
DA:139,1
DA:140,1
DA:150,1
DA:151,1
DA:152,1
DA:153,1
DA:154,1
DA:157,2
DA:158,2
DA:159,2
DA:162,1
DA:163,1
DA:164,1
DA:165,1
DA:173,1
DA:174,1
DA:175,1
DA:176,1
DA:177,1
DA:180,1
DA:181,1
DA:182,1
DA:183,1
DA:184,1
DA:187,1
DA:188,1
DA:189,1
DA:190,1
DA:191,1
DA:192,1
DA:195,1
DA:196,1
DA:199,1
DA:200,1
DA:201,1
DA:202,1
DA:203,1
DA:206,1
DA:207,1
DA:208,1
DA:209,1
DA:210,1
DA:213,1
DA:214,1
DA:215,1
DA:216,1
DA:217,1
DA:218,1
DA:219,1
DA:220,1
DA:223,1
DA:224,1
DA:225,1
DA:226,1
DA:227,1
DA:228,1
DA:229,1
DA:231,1
DA:232,1
DA:235,1
DA:236,1
DA:237,1
DA:239,1
DA:240,1
DA:243,1
DA:244,1
DA:245,1
DA:247,1
DA:248,1
DA:249,1
DA:250,1
DA:251,1
DA:252,1
DA:255,1
DA:256,1
DA:257,1
DA:258,1
DA:259,1
DA:260,1
DA:261,1
DA:262,1
DA:263,1
DA:264,1
DA:267,1
DA:268,1
DA:269,1
DA:270,1
DA:271,1
DA:272,1
DA:275,1
DA:276,1
DA:277,1
DA:278,1
DA:279,1
DA:280,1
BRF:0
BRH:0
LF:141
LH:139
end_of_record
SF:/Volumes/Files_1/iron-beam/rust-conversion/rust/usecases/usecases_bifs/src/regex.rs
FN:36,_RNvNtNtCsiy5cjwWxIM5_13usecases_bifs5regex5testss_22test_regex_placeholder
FN:11,_RNvMNtCsiy5cjwWxIM5_13usecases_bifs5regexNtB2_8RegexBif7compile
FNDA:1,_RNvNtNtCsiy5cjwWxIM5_13usecases_bifs5regex5testss_22test_regex_placeholder
FNDA:0,_RNvMNtCsiy5cjwWxIM5_13usecases_bifs5regexNtB2_8RegexBif7compile
FNF:2
FNH:1
DA:11,0
DA:13,0
DA:14,0
DA:36,1
DA:38,1
BRF:0
BRH:0
LF:5
LH:2
end_of_record
SF:/Volumes/Files_1/iron-beam/rust-conversion/rust/usecases/usecases_bifs/src/trace.rs
FN:11,_RNvMNtCsiy5cjwWxIM5_13usecases_bifs5traceNtB2_8TraceBif6enable
FN:29,_RNvNtNtCsiy5cjwWxIM5_13usecases_bifs5trace5testss_22test_trace_placeholder
FNDA:0,_RNvMNtCsiy5cjwWxIM5_13usecases_bifs5traceNtB2_8TraceBif6enable
FNDA:1,_RNvNtNtCsiy5cjwWxIM5_13usecases_bifs5trace5testss_22test_trace_placeholder
FNF:2
FNH:1
DA:11,0
DA:13,0
DA:14,0
DA:29,1
DA:31,1
BRF:0
BRH:0
LF:5
LH:2
end_of_record