SF:/Volumes/Files_1/iron-beam/rust-conversion/rust/usecases/usecases_bifs/src/checksum.rs
FN:291,_RNvNtNtCs8elDY9HXVC9_13usecases_bifs8checksum5testss_14test_md5_basic
FN:299,_RNvNtNtCs8elDY9HXVC9_13usecases_bifs8checksum5testss_14test_md5_empty
FN:229,_RNvNtNtCs8elDY9HXVC9_13usecases_bifs8checksum5testss_16test_crc32_basic
FN:236,_RNvNtNtCs8elDY9HXVC9_13usecases_bifs8checksum5testss_16test_crc32_empty
FN:255,_RNvNtNtCs8elDY9HXVC9_13usecases_bifs8checksum5testss_18test_adler32_basic
FN:262,_RNvNtNtCs8elDY9HXVC9_13usecases_bifs8checksum5testss_18test_adler32_empty
FN:279,_RNvNtNtCs8elDY9HXVC9_13usecases_bifs8checksum5testss_20test_adler32_combine
FN:311,_RNvNtNtCs8elDY9HXVC9_13usecases_bifs8checksum5testss_20test_md5_incremental
FN:243,_RNvNtNtCs8elDY9HXVC9_13usecases_bifs8checksum5testss_23test_crc32_with_initial
FN:269,_RNvNtNtCs8elDY9HXVC9_13usecases_bifs8checksum5testss_25test_adler32_with_initial
FN:323,_RNvNtNtCs8elDY9HXVC9_13usecases_bifs8checksum5testss_30test_crc32_combine_zero_length
FN:331,_RNvNtNtCs8elDY9HXVC9_13usecases_bifs8checksum5testss_32test_adler32_combine_zero_length
FN:56,_RNvMNtCs8elDY9HXVC9_13usecases_bifs8checksumNtB2_11ChecksumBif13crc32_combine
FN:158,_RNvMNtCs8elDY9HXVC9_13usecases_bifs8checksumNtB2_11ChecksumBif15adler32_combine
FN:38,_RNvMNtCs8elDY9HXVC9_13usecases_bifs8checksumNtB2_11ChecksumBif18crc32_with_initial
FN:143,_RNvMNtCs8elDY9HXVC9_13usecases_bifs8checksumNtB2_11ChecksumBif20adler32_with_initial
FN:186,_RNvMNtCs8elDY9HXVC9_13usecases_bifs8checksumNtB2_11ChecksumBif3md5
FN:24,_RNvMNtCs8elDY9HXVC9_13usecases_bifs8checksumNtB2_11ChecksumBif5crc32
FN:129,_RNvMNtCs8elDY9HXVC9_13usecases_bifs8checksumNtB2_11ChecksumBif7adler32
FN:194,_RNvMNtCs8elDY9HXVC9_13usecases_bifs8checksumNtB2_11ChecksumBif7md5_new
FN:96,_RNvMNtCs8elDY9HXVC9_13usecases_bifs8checksumNtB2_11ChecksumBif7x2nmodp
FN:69,_RNvMNtCs8elDY9HXVC9_13usecases_bifs8checksumNtB2_11ChecksumBif8multmodp
FN:206,_RNvMs_NtCs8elDY9HXVC9_13usecases_bifs8checksumNtB4_10Md5Context3new
FN:213,_RNvMs_NtCs8elDY9HXVC9_13usecases_bifs8checksumNtB4_10Md5Context6update
FN:218,_RNvMs_NtCs8elDY9HXVC9_13usecases_bifs8checksumNtB4_10Md5Context8finalize
FNDA:1,_RNvNtNtCs8elDY9HXVC9_13usecases_bifs8checksum5testss_14test_md5_basic
FNDA:1,_RNvNtNtCs8elDY9HXVC9_13usecases_bifs8checksum5testss_14test_md5_empty
FNDA:1,_RNvNtNtCs8elDY9HXVC9_13usecases_bifs8checksum5testss_16test_crc32_basic
FNDA:1,_RNvNtNtCs8elDY9HXVC9_13usecases_bifs8checksum5testss_16test_crc32_empty
FNDA:1,_RNvNtNtCs8elDY9HXVC9_13usecases_bifs8checksum5testss_18test_adler32_basic
FNDA:1,_RNvNtNtCs8elDY9HXVC9_13usecases_bifs8checksum5testss_18test_adler32_empty
FNDA:1,_RNvNtNtCs8elDY9HXVC9_13usecases_bifs8checksum5testss_20test_adler32_combine
FNDA:1,_RNvNtNtCs8elDY9HXVC9_13usecases_bifs8checksum5testss_20test_md5_incremental
FNDA:1,_RNvNtNtCs8elDY9HXVC9_13usecases_bifs8checksum5testss_23test_crc32_with_initial
FNDA:1,_RNvNtNtCs8elDY9HXVC9_13usecases_bifs8checksum5testss_25test_adler32_with_initial
FNDA:1,_RNvNtNtCs8elDY9HXVC9_13usecases_bifs8checksum5testss_30test_crc32_combine_zero_length
FNDA:1,_RNvNtNtCs8elDY9HXVC9_13usecases_bifs8checksum5testss_32test_adler32_combine_zero_length
FNDA:1,_RNvMNtCs8elDY9HXVC9_13usecases_bifs8checksumNtB2_11ChecksumBif13crc32_combine
FNDA:2,_RNvMNtCs8elDY9HXVC9_13usecases_bifs8checksumNtB2_11ChecksumBif15adler32_combine
FNDA:1,_RNvMNtCs8elDY9HXVC9_13usecases_bifs8checksumNtB2_11ChecksumBif18crc32_with_initial
FNDA:1,_RNvMNtCs8elDY9HXVC9_13usecases_bifs8checksumNtB2_11ChecksumBif20adler32_with_initial
FNDA:3,_RNvMNtCs8elDY9HXVC9_13usecases_bifs8checksumNtB2_11ChecksumBif3md5
FNDA:6,_RNvMNtCs8elDY9HXVC9_13usecases_bifs8checksumNtB2_11ChecksumBif5crc32
FNDA:9,_RNvMNtCs8elDY9HXVC9_13usecases_bifs8checksumNtB2_11ChecksumBif7adler32
FNDA:1,_RNvMNtCs8elDY9HXVC9_13usecases_bifs8checksumNtB2_11ChecksumBif7md5_new
FNDA:0,_RNvMNtCs8elDY9HXVC9_13usecases_bifs8checksumNtB2_11ChecksumBif7x2nmodp
FNDA:0,_RNvMNtCs8elDY9HXVC9_13usecases_bifs8checksumNtB2_11ChecksumBif8multmodp
FNDA:1,_RNvMs_NtCs8elDY9HXVC9_13usecases_bifs8checksumNtB4_10Md5Context3new
FNDA:2,_RNvMs_NtCs8elDY9HXVC9_13usecases_bifs8checksumNtB4_10Md5Context6update
FNDA:1,_RNvMs_NtCs8elDY9HXVC9_13usecases_bifs8checksumNtB4_10Md5Context8finalize
FNF:25
FNH:23
DA:24,6
DA:25,6
DA:26,6
DA:27,6
DA:28,6
DA:38,1
DA:39,1
DA:40,1
DA:41,1
DA:42,1
DA:56,1
DA:57,1
DA:58,1
DA:59,0
DA:61,0
DA:62,0
DA:63,1
DA:69,0
DA:72,0
DA:73,0
DA:76,0
DA:77,0
DA:78,0
DA:79,0
DA:80,0
DA:81,0
DA:82,0
DA:83,0
DA:84,0
DA:86,0
DA:89,0
DA:90,0
DA:96,0
DA:100,0
DA:101,0
DA:102,0
DA:103,0
DA:104,0
DA:105,0
DA:106,0
DA:108,0
DA:109,0
DA:110,0
DA:112,0
DA:113,0
DA:114,0
DA:115,0
DA:116,0
DA:117,0
DA:119,0
DA:120,0
DA:129,9
DA:130,9
DA:131,9
DA:132,9
DA:133,9
DA:143,1
DA:144,1
DA:145,1
DA:146,1
DA:147,1
DA:158,2
DA:159,2
DA:160,1
DA:161,1
DA:164,1
DA:165,1
DA:166,1
DA:167,1
DA:168,1
DA:170,1
DA:171,1
DA:173,1
DA:174,1
DA:176,1
DA:177,2
DA:186,3
DA:187,3
DA:188,3
DA:189,3
DA:194,1
DA:195,1
DA:196,1
DA:206,1
DA:207,1
DA:208,1
DA:209,1
DA:210,1
DA:213,2
DA:214,2
DA:215,2
DA:218,1
DA:219,1
DA:220,1
DA:221,1
DA:229,1
DA:230,1
DA:231,1
DA:232,1
DA:233,1
DA:236,1
DA:237,1
DA:238,1
DA:239,1
DA:240,1
DA:243,1
DA:244,1
DA:245,1
DA:246,1
DA:247,1
DA:248,1
DA:251,1
DA:252,1
DA:255,1
DA:256,1
DA:257,1
DA:258,1
DA:259,1
DA:262,1
DA:263,1
DA:264,1
DA:265,1
DA:266,1
DA:269,1
DA:270,1
DA:271,1
DA:272,1
DA:273,1
DA:274,1
DA:275,1
DA:276,1
DA:279,1
DA:280,1
DA:281,1
DA:282,1
DA:283,1
DA:284,1
DA:285,1
DA:287,1
DA:288,1
DA:291,1
DA:292,1
DA:293,1
DA:295,1
DA:296,1
DA:299,1
DA:300,1
DA:301,1
DA:303,1
DA:304,1
DA:305,1
DA:306,1
DA:307,1
DA:308,1
DA:311,1
DA:312,1
DA:313,1
DA:314,1
DA:315,1
DA:316,1
DA:317,1
DA:318,1
DA:319,1
DA:320,1
DA:323,1
DA:324,1
DA:325,1
DA:326,1
DA:327,1
DA:328,1
DA:331,1
DA:332,1
DA:333,1
DA:334,1
DA:335,1
DA:336,1
BRF:0
BRH:0
LF:176
LH:139
end_of_record
SF:/Volumes/Files_1/iron-beam/rust-conversion/rust/usecases/usecases_bifs/src/regex.rs
FN:310,_RNvNtNtCs8elDY9HXVC9_13usecases_bifs5regex5testss_12test_version
FN:286,_RNvNtNtCs8elDY9HXVC9_13usecases_bifs5regex5testss_13test_find_all
FN:303,_RNvNtNtCs8elDY9HXVC9_13usecases_bifs5regex5testss_14test_multiline
FN:250,_RNvNtNtCs8elDY9HXVC9_13usecases_bifs5regex5testss_14test_run_match
FN:259,_RNvNtNtCs8elDY9HXVC9_13usecases_bifs5regex5testss_17test_run_no_match
FN:233,_RNvNtNtCs8elDY9HXVC9_13usecases_bifs5regex5testss_19test_compile_simple
FN:239,_RNvNtNtCs8elDY9HXVC9_13usecases_bifs5regex5testss_20test_compile_invalid
FN:277,_RNvNtNtCs8elDY9HXVC9_13usecases_bifs5regex5testss_20test_run_with_offset
FN:296,_RNvNtNtCs8elDY9HXVC9_13usecases_bifs5regex5testss_21test_case_insensitive
FN:266,_RNvNtNtCs8elDY9HXVC9_13usecases_bifs5regex5testss_22test_run_with_captures
FN:183,_RNvMs_NtCs8elDY9HXVC9_13usecases_bifs5regexNtB4_13CompiledRegex6as_ref
FN:218,_RNvXs0_NtCs8elDY9HXVC9_13usecases_bifs5regexNtB5_10RegexErrorNtNtCsksJIhyblnkX_4core3fmt7Display3fmt
FN:53,_RNvMNtCs8elDY9HXVC9_13usecases_bifs5regexNtB2_8RegexBif14compile_simple
FN:74,_RNvMNtCs8elDY9HXVC9_13usecases_bifs5regexNtB2_8RegexBif3run
FN:27,_RNvMNtCs8elDY9HXVC9_13usecases_bifs5regexNtB2_8RegexBif7compile
FN:61,_RNvMNtCs8elDY9HXVC9_13usecases_bifs5regexNtB2_8RegexBif7version
FN:135,_RNvMNtCs8elDY9HXVC9_13usecases_bifs5regexNtB2_8RegexBif8find_all
FN:41,_RNCNvMNtCs8elDY9HXVC9_13usecases_bifs5regexNtB4_8RegexBif7compile0B6_
FN:43,_RNCNvMNtCs8elDY9HXVC9_13usecases_bifs5regexNtB4_8RegexBif7compiles_0B6_
FNDA:1,_RNvNtNtCs8elDY9HXVC9_13usecases_bifs5regex5testss_12test_version
FNDA:1,_RNvNtNtCs8elDY9HXVC9_13usecases_bifs5regex5testss_13test_find_all
FNDA:1,_RNvNtNtCs8elDY9HXVC9_13usecases_bifs5regex5testss_14test_multiline
FNDA:1,_RNvNtNtCs8elDY9HXVC9_13usecases_bifs5regex5testss_14test_run_match
FNDA:1,_RNvNtNtCs8elDY9HXVC9_13usecases_bifs5regex5testss_17test_run_no_match
FNDA:1,_RNvNtNtCs8elDY9HXVC9_13usecases_bifs5regex5testss_19test_compile_simple
FNDA:1,_RNvNtNtCs8elDY9HXVC9_13usecases_bifs5regex5testss_20test_compile_invalid
FNDA:1,_RNvNtNtCs8elDY9HXVC9_13usecases_bifs5regex5testss_20test_run_with_offset
FNDA:1,_RNvNtNtCs8elDY9HXVC9_13usecases_bifs5regex5testss_21test_case_insensitive
FNDA:1,_RNvNtNtCs8elDY9HXVC9_13usecases_bifs5regex5testss_22test_run_with_captures
FNDA:0,_RNvMs_NtCs8elDY9HXVC9_13usecases_bifs5regexNtB4_13CompiledRegex6as_ref
FNDA:0,_RNvXs0_NtCs8elDY9HXVC9_13usecases_bifs5regexNtB5_10RegexErrorNtNtCsksJIhyblnkX_4core3fmt7Display3fmt
FNDA:7,_RNvMNtCs8elDY9HXVC9_13usecases_bifs5regexNtB2_8RegexBif14compile_simple
FNDA:6,_RNvMNtCs8elDY9HXVC9_13usecases_bifs5regexNtB2_8RegexBif3run
FNDA:9,_RNvMNtCs8elDY9HXVC9_13usecases_bifs5regexNtB2_8RegexBif7compile
FNDA:1,_RNvMNtCs8elDY9HXVC9_13usecases_bifs5regexNtB2_8RegexBif7version
FNDA:1,_RNvMNtCs8elDY9HXVC9_13usecases_bifs5regexNtB2_8RegexBif8find_all
FNDA:8,_RNCNvMNtCs8elDY9HXVC9_13usecases_bifs5regexNtB4_8RegexBif7compile0B6_
FNDA:1,_RNCNvMNtCs8elDY9HXVC9_13usecases_bifs5regexNtB4_8RegexBif7compiles_0B6_
FNF:19
FNH:17
DA:27,9
DA:28,9
DA:29,9
DA:30,9
DA:31,9
DA:32,9
DA:33,9
DA:34,9
DA:35,9
DA:36,9
DA:38,9
DA:39,9
DA:40,9
DA:41,8
DA:42,8
DA:43,9
DA:44,9
DA:53,7
DA:54,7
DA:55,7
DA:61,1
DA:62,1
DA:63,1
DA:74,6
DA:75,6
DA:76,6
DA:77,6
DA:78,6
DA:79,6
DA:80,0
DA:81,6
DA:83,6
DA:84,6
DA:86,6
DA:87,5
DA:90,5
DA:91,5
DA:92,5
DA:93,5
DA:94,5
DA:95,5
DA:96,5
DA:99,5
DA:100,2
DA:101,2
DA:102,2
DA:103,2
DA:104,2
DA:105,2
DA:106,2
DA:107,0
DA:108,0
DA:109,0
DA:110,0
DA:111,0
DA:112,0
DA:115,5
DA:116,5
DA:117,5
DA:118,5
DA:120,1
DA:121,1
DA:122,1
DA:123,1
DA:125,6
DA:135,1
DA:136,1
DA:137,1
DA:139,3
DA:140,3
DA:142,3
DA:143,3
DA:144,3
DA:145,3
DA:146,3
DA:147,3
DA:148,3
DA:150,3
DA:151,0
DA:152,0
DA:153,0
DA:154,0
DA:155,0
DA:156,0
DA:157,0
DA:158,0
DA:159,0
DA:160,0
DA:161,0
DA:162,0
DA:163,0
DA:166,3
DA:167,3
DA:168,3
DA:169,3
DA:172,1
DA:173,1
DA:183,0
DA:184,0
DA:185,0
DA:218,0
DA:219,0
DA:220,0
DA:221,0
DA:223,0
DA:233,1
DA:234,1
DA:235,1
DA:236,1
DA:239,1
DA:240,1
DA:241,1
DA:242,1
DA:243,1
DA:244,1
DA:245,0
DA:247,1
DA:250,1
DA:251,1
DA:252,1
DA:253,1
DA:254,1
DA:255,1
DA:256,1
DA:259,1
DA:260,1
DA:261,1
DA:262,1
DA:263,1
DA:266,1
DA:267,1
DA:268,1
DA:269,1
DA:270,1
DA:271,1
DA:272,1
DA:273,1
DA:274,1
DA:277,1
DA:278,1
DA:279,1
DA:280,1
DA:281,1
DA:282,1
DA:283,1
DA:286,1
DA:287,1
DA:288,1
DA:289,1
DA:290,1
DA:291,1
DA:292,1
DA:293,1
DA:296,1
DA:297,1
DA:298,1
DA:299,1
DA:300,1
DA:303,1
DA:304,1
DA:305,1
DA:306,1
DA:307,1
DA:310,1
DA:311,1
DA:312,1
DA:313,1
BRF:0
BRH:0
LF:168
LH:139
end_of_record
SF:/Volumes/Files_1/iron-beam/rust-conversion/rust/usecases/usecases_bifs/src/trace.rs
FN:11,_RNvMNtCs8elDY9HXVC9_13usecases_bifs5traceNtB2_8TraceBif6enable
FN:29,_RNvNtNtCs8elDY9HXVC9_13usecases_bifs5trace5testss_22test_trace_placeholder
FNDA:0,_RNvMNtCs8elDY9HXVC9_13usecases_bifs5traceNtB2_8TraceBif6enable
FNDA:1,_RNvNtNtCs8elDY9HXVC9_13usecases_bifs5trace5testss_22test_trace_placeholder
FNF:2
FNH:1
DA:11,0
DA:13,0
DA:14,0
DA:29,1
DA:31,1
BRF:0
BRH:0
LF:5
LH:2
end_of_record
SF:/private/tmp/rust-20251113-8447-hxwdfq/rustc-1.91.1-src/library/std/src/sys/thread_local/native/mod.rs
FN:83,_RNvNvNtNtNtCse7UTUzQ4v9x_14regex_automata4util4pool5inner9THREAD_ID6___initCs8elDY9HXVC9_13usecases_bifs
FN:101,_RNCNkNvNtNtNtCse7UTUzQ4v9x_14regex_automata4util4pool5inner9THREAD_ID0s_0Cs8elDY9HXVC9_13usecases_bifs
FN:94,_RNCNkNvNtNtNtCse7UTUzQ4v9x_14regex_automata4util4pool5inner9THREAD_ID00Bb_
FN:101,_RNCNkNvNtNtNtCse7UTUzQ4v9x_14regex_automata4util4pool5inner9THREAD_ID0s_0Bb_
FN:83,_RNvNvNtNtNtCse7UTUzQ4v9x_14regex_automata4util4pool5inner9THREAD_ID6___initB9_
FNDA:7,_RNvNvNtNtNtCse7UTUzQ4v9x_14regex_automata4util4pool5inner9THREAD_ID6___initCs8elDY9HXVC9_13usecases_bifs
FNDA:7,_RNCNkNvNtNtNtCse7UTUzQ4v9x_14regex_automata4util4pool5inner9THREAD_ID0s_0Cs8elDY9HXVC9_13usecases_bifs
FNDA:0,_RNCNkNvNtNtNtCse7UTUzQ4v9x_14regex_automata4util4pool5inner9THREAD_ID00Bb_
FNDA:0,_RNCNkNvNtNtNtCse7UTUzQ4v9x_14regex_automata4util4pool5inner9THREAD_ID0s_0Bb_
FNDA:0,_RNvNvNtNtNtCse7UTUzQ4v9x_14regex_automata4util4pool5inner9THREAD_ID6___initB9_
FNF:3
FNH:2
DA:83,7
DA:94,0
DA:101,7
BRF:0
BRH:0
LF:3
LH:2
end_of_record