SF:/Volumes/Files_1/iron-beam/rust-conversion/rust/adapters/adapters_debugging/src/trace_nif.rs
FN:29,_RNvNtNtCs3GtyopD8KDX_18adapters_debugging9trace_nif5testss_26test_trace_nif_placeholder
FN:11,_RNvMNtCs3GtyopD8KDX_18adapters_debugging9trace_nifNtB2_8TraceNif6enable
FNDA:1,_RNvNtNtCs3GtyopD8KDX_18adapters_debugging9trace_nif5testss_26test_trace_nif_placeholder
FNDA:0,_RNvMNtCs3GtyopD8KDX_18adapters_debugging9trace_nifNtB2_8TraceNif6enable
FNF:2
FNH:1
DA:11,0
DA:13,0
DA:14,0
DA:29,1
DA:31,1
BRF:0
BRH:0
LF:5
LH:2
end_of_record
SF:/Volumes/Files_1/iron-beam/rust-conversion/rust/adapters/adapters_debugging/src/tracer.rs
FN:21,_RNvNtNtCs3GtyopD8KDX_18adapters_debugging6tracer5testss_11test_tracer
FN:11,_RNvMNtCs3GtyopD8KDX_18adapters_debugging6tracerNtB2_6Tracer3new
FNDA:1,_RNvNtNtCs3GtyopD8KDX_18adapters_debugging6tracer5testss_11test_tracer
FNDA:1,_RNvMNtCs3GtyopD8KDX_18adapters_debugging6tracerNtB2_6Tracer3new
FNF:2
FNH:2
DA:11,1
DA:12,1
DA:13,1
DA:21,1
DA:22,1
DA:23,1
BRF:0
BRH:0
LF:6
LH:6
end_of_record
SF:/Volumes/Files_1/iron-beam/rust-conversion/rust/adapters/adapters_distribution/src/external.rs
FN:44,_RNvNtNtCs998qHyq042x_21adapters_distribution8external5testss_30test_external_term_placeholder
FN:17,_RNvMNtCs998qHyq042x_21adapters_distribution8externalNtB2_12ExternalTerm6decode
FN:11,_RNvMNtCs998qHyq042x_21adapters_distribution8externalNtB2_12ExternalTerm6encode
FNDA:1,_RNvNtNtCs998qHyq042x_21adapters_distribution8external5testss_30test_external_term_placeholder
FNDA:0,_RNvMNtCs998qHyq042x_21adapters_distribution8externalNtB2_12ExternalTerm6decode
FNDA:0,_RNvMNtCs998qHyq042x_21adapters_distribution8externalNtB2_12ExternalTerm6encode
FNF:3
FNH:1
DA:11,0
DA:13,0
DA:14,0
DA:17,0
DA:19,0
DA:20,0
DA:44,1
DA:46,1
BRF:0
BRH:0
LF:8
LH:2
end_of_record
SF:/Volumes/Files_1/iron-beam/rust-conversion/rust/adapters/adapters_distribution/src/uds.rs
FN:15,_RNvMNtCs998qHyq042x_21adapters_distribution3udsNtB2_15UdsDistribution7connect
FN:46,_RNvNtNtCs998qHyq042x_21adapters_distribution3uds5testss_20test_uds_placeholder
FNDA:0,_RNvMNtCs998qHyq042x_21adapters_distribution3udsNtB2_15UdsDistribution7connect
FNDA:1,_RNvNtNtCs998qHyq042x_21adapters_distribution3uds5testss_20test_uds_placeholder
FNF:2
FNH:1
DA:15,0
DA:17,0
DA:18,0
DA:46,1
DA:48,1
BRF:0
BRH:0
LF:5
LH:2
end_of_record
SF:/Volumes/Files_1/iron-beam/rust-conversion/rust/adapters/adapters_drivers/src/inet.rs
FN:11,_RNvMNtCsdxP89zfRFVK_16adapters_drivers4inetNtB2_10InetDriver3new
FN:21,_RNvNtNtCsdxP89zfRFVK_16adapters_drivers4inet5testss_16test_inet_driver
FNDA:1,_RNvMNtCsdxP89zfRFVK_16adapters_drivers4inetNtB2_10InetDriver3new
FNDA:1,_RNvNtNtCsdxP89zfRFVK_16adapters_drivers4inet5testss_16test_inet_driver
FNF:2
FNH:2
DA:11,1
DA:12,1
DA:13,1
DA:21,1
DA:22,1
DA:23,1
BRF:0
BRH:0
LF:6
LH:6
end_of_record
SF:/Volumes/Files_1/iron-beam/rust-conversion/rust/adapters/adapters_drivers/src/ram_file.rs
FN:22,_RNvMNtCsdxP89zfRFVK_16adapters_drivers8ram_fileNtB2_13RamFileDriver11create_file
FN:15,_RNvMNtCsdxP89zfRFVK_16adapters_drivers8ram_fileNtB2_13RamFileDriver3new
FN:27,_RNvMNtCsdxP89zfRFVK_16adapters_drivers8ram_fileNtB2_13RamFileDriver9read_file
FN:37,_RNvNtNtCsdxP89zfRFVK_16adapters_drivers8ram_file5testss_20test_ram_file_driver
FN:28,_RNCNvMNtCsdxP89zfRFVK_16adapters_drivers8ram_fileNtB4_13RamFileDriver9read_file0B6_
FNDA:1,_RNvMNtCsdxP89zfRFVK_16adapters_drivers8ram_fileNtB2_13RamFileDriver11create_file
FNDA:1,_RNvMNtCsdxP89zfRFVK_16adapters_drivers8ram_fileNtB2_13RamFileDriver3new
FNDA:1,_RNvMNtCsdxP89zfRFVK_16adapters_drivers8ram_fileNtB2_13RamFileDriver9read_file
FNDA:1,_RNvNtNtCsdxP89zfRFVK_16adapters_drivers8ram_file5testss_20test_ram_file_driver
FNDA:1,_RNCNvMNtCsdxP89zfRFVK_16adapters_drivers8ram_fileNtB4_13RamFileDriver9read_file0B6_
FNF:5
FNH:5
DA:15,1
DA:16,1
DA:17,1
DA:18,1
DA:19,1
DA:22,1
DA:23,1
DA:24,1
DA:27,1
DA:28,1
DA:29,1
DA:37,1
DA:38,1
DA:39,1
DA:40,1
DA:41,1
BRF:0
BRH:0
LF:17
LH:17
end_of_record
SF:/Volumes/Files_1/iron-beam/rust-conversion/rust/adapters/adapters_ets_tables/src/ets_debug.rs
FN:10,_RNvMNtCsewok1jVOEON_19adapters_ets_tables9ets_debugNtB2_8EtsDebug5debug
FN:21,_RNvNtNtCsewok1jVOEON_19adapters_ets_tables9ets_debug5testss_14test_ets_debug
FNDA:1,_RNvMNtCsewok1jVOEON_19adapters_ets_tables9ets_debugNtB2_8EtsDebug5debug
FNDA:1,_RNvNtNtCsewok1jVOEON_19adapters_ets_tables9ets_debug5testss_14test_ets_debug
FNF:2
FNH:2
DA:10,1
DA:12,1
DA:13,1
DA:21,1
DA:22,1
DA:23,1
DA:24,1
BRF:0
BRH:0
LF:7
LH:7
end_of_record
SF:/Volumes/Files_1/iron-beam/rust-conversion/rust/adapters/adapters_io_operations/src/driver_io.rs
FN:27,_RNvNtNtCscYukiUZYbmD_22adapters_io_operations9driver_io5testss_26test_driver_io_placeholder
FN:11,_RNvMNtCscYukiUZYbmD_22adapters_io_operations9driver_ioNtB2_8DriverIo4open
FNDA:1,_RNvNtNtCscYukiUZYbmD_22adapters_io_operations9driver_io5testss_26test_driver_io_placeholder
FNDA:0,_RNvMNtCscYukiUZYbmD_22adapters_io_operations9driver_ioNtB2_8DriverIo4open
FNF:2
FNH:1
DA:11,0
DA:13,0
DA:14,0
DA:27,1
DA:29,1
BRF:0
BRH:0
LF:5
LH:2
end_of_record
SF:/Volumes/Files_1/iron-beam/rust-conversion/rust/adapters/adapters_io_operations/src/port_io.rs
FN:37,_RNvNtNtCscYukiUZYbmD_22adapters_io_operations7port_io5testss_24test_port_io_placeholder
FN:11,_RNvMNtCscYukiUZYbmD_22adapters_io_operations7port_ioNtB2_6PortIo4read
FN:17,_RNvMNtCscYukiUZYbmD_22adapters_io_operations7port_ioNtB2_6PortIo5write
FNDA:1,_RNvNtNtCscYukiUZYbmD_22adapters_io_operations7port_io5testss_24test_port_io_placeholder
FNDA:0,_RNvMNtCscYukiUZYbmD_22adapters_io_operations7port_ioNtB2_6PortIo4read
FNDA:0,_RNvMNtCscYukiUZYbmD_22adapters_io_operations7port_ioNtB2_6PortIo5write
FNF:3
FNH:1
DA:11,0
DA:13,0
DA:14,0
DA:17,0
DA:19,0
DA:20,0
DA:37,1
DA:39,1
BRF:0
BRH:0
LF:8
LH:2
end_of_record
SF:/Volumes/Files_1/iron-beam/rust-conversion/rust/adapters/adapters_nifs/src/buffer.rs
FN:11,_RNvMNtCshXanomSZofS_13adapters_nifs6bufferNtB2_9BufferNif3new
FN:24,_RNvMs_NtCshXanomSZofS_13adapters_nifs6bufferNtB4_6Buffer4data
FN:45,_RNvNtNtCshXanomSZofS_13adapters_nifs6buffer5testss_27test_buffer_nif_placeholder
FNDA:0,_RNvMNtCshXanomSZofS_13adapters_nifs6bufferNtB2_9BufferNif3new
FNDA:0,_RNvMs_NtCshXanomSZofS_13adapters_nifs6bufferNtB4_6Buffer4data
FNDA:1,_RNvNtNtCshXanomSZofS_13adapters_nifs6buffer5testss_27test_buffer_nif_placeholder
FNF:3
FNH:1
DA:11,0
DA:13,0
DA:14,0
DA:24,0
DA:25,0
DA:26,0
DA:45,1
DA:47,1
BRF:0
BRH:0
LF:8
LH:2
end_of_record
SF:/Volumes/Files_1/iron-beam/rust-conversion/rust/adapters/adapters_nifs/src/file.rs
FN:36,_RNvMs_NtCshXanomSZofS_13adapters_nifs4fileNtB4_10FileHandle4read
FN:41,_RNvMs_NtCshXanomSZofS_13adapters_nifs4fileNtB4_10FileHandle5write
FN:56,_RNvNtNtCshXanomSZofS_13adapters_nifs4file5testss_13test_file_nif
FN:15,_RINvMNtCshXanomSZofS_13adapters_nifs4fileNtB3_7FileNif4openRNtNtCsfE6eI1iGeYh_3std4path7PathBufEB5_
FN:22,_RINvMNtCshXanomSZofS_13adapters_nifs4fileNtB3_7FileNif6createRNtNtCsfE6eI1iGeYh_3std4path7PathBufEB5_
FN:17,_RNCINvMNtCshXanomSZofS_13adapters_nifs4fileNtB5_7FileNif4openRNtNtCsfE6eI1iGeYh_3std4path7PathBufE0B7_
FN:24,_RNCINvMNtCshXanomSZofS_13adapters_nifs4fileNtB5_7FileNif6createRNtNtCsfE6eI1iGeYh_3std4path7PathBufE0B7_
FNDA:1,_RNvMs_NtCshXanomSZofS_13adapters_nifs4fileNtB4_10FileHandle4read
FNDA:1,_RNvMs_NtCshXanomSZofS_13adapters_nifs4fileNtB4_10FileHandle5write
FNDA:1,_RNvNtNtCshXanomSZofS_13adapters_nifs4file5testss_13test_file_nif
FNDA:1,_RINvMNtCshXanomSZofS_13adapters_nifs4fileNtB3_7FileNif4openRNtNtCsfE6eI1iGeYh_3std4path7PathBufEB5_
FNDA:1,_RINvMNtCshXanomSZofS_13adapters_nifs4fileNtB3_7FileNif6createRNtNtCsfE6eI1iGeYh_3std4path7PathBufEB5_
FNDA:1,_RNCINvMNtCshXanomSZofS_13adapters_nifs4fileNtB5_7FileNif4openRNtNtCsfE6eI1iGeYh_3std4path7PathBufE0B7_
FNDA:1,_RNCINvMNtCshXanomSZofS_13adapters_nifs4fileNtB5_7FileNif6createRNtNtCsfE6eI1iGeYh_3std4path7PathBufE0B7_
FNF:7
FNH:7
DA:15,1
DA:16,1
DA:17,1
DA:18,1
DA:19,1
DA:22,1
DA:23,1
DA:24,1
DA:25,1
DA:26,1
DA:36,1
DA:37,1
DA:38,1
DA:41,1
DA:42,1
DA:43,1
DA:56,1
DA:57,1
DA:58,1
DA:61,1
DA:62,1
DA:65,1
DA:66,1
DA:67,1
DA:68,1
DA:71,1
DA:72,1
BRF:0
BRH:0
LF:29
LH:29
end_of_record
SF:/Volumes/Files_1/iron-beam/rust-conversion/rust/adapters/adapters_nifs/src/nif_common.rs
FN:10,_RNvMNtCshXanomSZofS_13adapters_nifs10nif_commonNtB2_6NifEnv3new
FN:20,_RNvNtNtCshXanomSZofS_13adapters_nifs10nif_common5testss_12test_nif_env
FNDA:1,_RNvMNtCshXanomSZofS_13adapters_nifs10nif_commonNtB2_6NifEnv3new
FNDA:1,_RNvNtNtCshXanomSZofS_13adapters_nifs10nif_common5testss_12test_nif_env
FNF:2
FNH:2
DA:10,1
DA:11,1
DA:12,1
DA:20,1
DA:21,1
DA:22,1
BRF:0
BRH:0
LF:6
LH:6
end_of_record
SF:/Volumes/Files_1/iron-beam/rust-conversion/rust/adapters/adapters_system_integration_common/src/check_io.rs
FN:11,_RNvMNtCs57LrTmjmjA_34adapters_system_integration_common8check_ioNtB2_7CheckIo5check
FN:29,_RNvNtNtCs57LrTmjmjA_34adapters_system_integration_common8check_io5testss_25test_check_io_placeholder
FNDA:0,_RNvMNtCs57LrTmjmjA_34adapters_system_integration_common8check_ioNtB2_7CheckIo5check
FNDA:1,_RNvNtNtCs57LrTmjmjA_34adapters_system_integration_common8check_io5testss_25test_check_io_placeholder
FNF:2
FNH:1
DA:11,0
DA:13,0
DA:14,0
DA:29,1
DA:31,1
BRF:0
BRH:0
LF:5
LH:2
end_of_record
SF:/Volumes/Files_1/iron-beam/rust-conversion/rust/adapters/adapters_system_integration_unix/src/sys_drivers.rs
FN:11,_RNvMNtCshEwODibJWxk_32adapters_system_integration_unix11sys_driversNtB2_10SysDrivers4init
FN:30,_RNvNtNtCshEwODibJWxk_32adapters_system_integration_unix11sys_drivers5testss_16test_sys_drivers
FNDA:1,_RNvMNtCshEwODibJWxk_32adapters_system_integration_unix11sys_driversNtB2_10SysDrivers4init
FNDA:1,_RNvNtNtCshEwODibJWxk_32adapters_system_integration_unix11sys_drivers5testss_16test_sys_drivers
FNF:2
FNH:2
DA:11,1
DA:13,1
DA:14,1
DA:30,1
DA:31,1
DA:32,1
DA:33,1
BRF:0
BRH:0
LF:7
LH:7
end_of_record
SF:/Volumes/Files_1/iron-beam/rust-conversion/rust/adapters/adapters_time_management/src/timer.rs
FN:16,_RNvMNtCsajvogitQ4Iz_24adapters_time_management5timerNtB2_5Timer3new
FN:24,_RNvMNtCsajvogitQ4Iz_24adapters_time_management5timerNtB2_5Timer7expired
FN:29,_RNvMNtCsajvogitQ4Iz_24adapters_time_management5timerNtB2_5Timer9remaining
FN:44,_RNvNtNtCsajvogitQ4Iz_24adapters_time_management5timer5testss_10test_timer
FNDA:1,_RNvMNtCsajvogitQ4Iz_24adapters_time_management5timerNtB2_5Timer3new
FNDA:1,_RNvMNtCsajvogitQ4Iz_24adapters_time_management5timerNtB2_5Timer7expired
FNDA:1,_RNvMNtCsajvogitQ4Iz_24adapters_time_management5timerNtB2_5Timer9remaining
FNDA:1,_RNvNtNtCsajvogitQ4Iz_24adapters_time_management5timer5testss_10test_timer
FNF:4
FNH:4
DA:16,1
DA:17,1
DA:18,1
DA:19,1
DA:20,1
DA:21,1
DA:24,1
DA:25,1
DA:26,1
DA:29,1
DA:30,1
DA:31,1
DA:32,0
DA:34,1
DA:36,1
DA:44,1
DA:45,1
DA:46,1
DA:47,1
DA:48,1
BRF:0
BRH:0
LF:20
LH:19
end_of_record
SF:/Volumes/Files_1/iron-beam/rust-conversion/rust/adapters/adapters_time_management/src/timeslice.rs
FN:13,_RNvMNtCsajvogitQ4Iz_24adapters_time_management9timesliceNtB2_9TimeSlice3new
FN:20,_RNvMNtCsajvogitQ4Iz_24adapters_time_management9timesliceNtB2_9TimeSlice7consume
FN:29,_RNvMNtCsajvogitQ4Iz_24adapters_time_management9timesliceNtB2_9TimeSlice9remaining
FN:39,_RNvNtNtCsajvogitQ4Iz_24adapters_time_management9timeslice5testss_14test_timeslice
FNDA:1,_RNvMNtCsajvogitQ4Iz_24adapters_time_management9timesliceNtB2_9TimeSlice3new
FNDA:1,_RNvMNtCsajvogitQ4Iz_24adapters_time_management9timesliceNtB2_9TimeSlice7consume
FNDA:2,_RNvMNtCsajvogitQ4Iz_24adapters_time_management9timesliceNtB2_9TimeSlice9remaining
FNDA:1,_RNvNtNtCsajvogitQ4Iz_24adapters_time_management9timeslice5testss_14test_timeslice
FNF:4
FNH:4
DA:13,1
DA:14,1
DA:15,1
DA:16,1
DA:17,1
DA:20,1
DA:21,1
DA:22,0
DA:23,1
DA:24,1
DA:25,1
DA:26,1
DA:29,2
DA:30,2
DA:31,2
DA:39,1
DA:40,1
DA:41,1
DA:42,1
DA:43,1
DA:44,1
BRF:0
BRH:0
LF:21
LH:20
end_of_record
SF:/Volumes/Files_1/iron-beam/rust-conversion/rust/api_facades/src/bif_facades.rs
FN:51,_RNvNtNtCscfqGyNEb7ET_11api_facades11bif_facades5testss_28test_bif_facades_placeholder
FN:34,bif_checksum_crc32
FN:23,bif_regex_compile
FNDA:1,_RNvNtNtCscfqGyNEb7ET_11api_facades11bif_facades5testss_28test_bif_facades_placeholder
FNDA:0,bif_checksum_crc32
FNDA:0,bif_regex_compile
FNF:3
FNH:1
DA:23,0
DA:24,0
DA:25,0
DA:26,0
DA:29,0
DA:30,0
DA:34,0
DA:35,0
DA:36,0
DA:37,0
DA:40,0
DA:41,0
DA:51,1
DA:53,1
BRF:0
BRH:0
LF:14
LH:2
end_of_record
SF:/Volumes/Files_1/iron-beam/rust-conversion/rust/api_facades/src/common_facades.rs
FN:30,_RNvNtNtCscfqGyNEb7ET_11api_facades14common_facades5testss_31test_common_facades_placeholder
FN:13,common_facade_function
FNDA:1,_RNvNtNtCscfqGyNEb7ET_11api_facades14common_facades5testss_31test_common_facades_placeholder
FNDA:0,common_facade_function
FNF:2
FNH:1
DA:13,0
DA:14,0
DA:15,0
DA:16,0
DA:19,0
DA:20,0
DA:30,1
DA:32,1
BRF:0
BRH:0
LF:8
LH:2
end_of_record
SF:/Volumes/Files_1/iron-beam/rust-conversion/rust/api_facades/src/driver_facades.rs
FN:13,driver_init
FN:21,driver_start
FN:28,driver_stop
FN:41,_RNvNtNtCscfqGyNEb7ET_11api_facades14driver_facades5testss_31test_driver_facades_placeholder
FNDA:0,driver_init
FNDA:0,driver_start
FNDA:0,driver_stop
FNDA:1,_RNvNtNtCscfqGyNEb7ET_11api_facades14driver_facades5testss_31test_driver_facades_placeholder
FNF:4
FNH:1
DA:13,0
DA:16,0
DA:17,0
DA:21,0
DA:23,0
DA:24,0
DA:28,0
DA:30,0
DA:31,0
DA:41,1
DA:43,1
BRF:0
BRH:0
LF:11
LH:2
end_of_record
SF:/Volumes/Files_1/iron-beam/rust-conversion/rust/api_facades/src/nif_facades.rs
FN:44,_RNvNtNtCscfqGyNEb7ET_11api_facades11nif_facades5testss_28test_nif_facades_placeholder
FN:16,nif_load
FN:28,nif_unload
FNDA:1,_RNvNtNtCscfqGyNEb7ET_11api_facades11nif_facades5testss_28test_nif_facades_placeholder
FNDA:0,nif_load
FNDA:0,nif_unload
FNF:3
FNH:1
DA:16,0
DA:17,0
DA:18,0
DA:19,0
DA:20,0
DA:23,0
DA:24,0
DA:28,0
DA:29,0
DA:30,0
DA:31,0
DA:33,0
DA:34,0
DA:44,1
DA:47,1
BRF:0
BRH:0
LF:15
LH:2
end_of_record
SF:/Volumes/Files_1/iron-beam/rust-conversion/rust/code_management/code_management_code_loading/src/code_loader.rs
FN:20,_RINvMNtCskKS2THUrLBv_28code_management_code_loading11code_loaderNtB3_10CodeLoader11load_moduleRNtNtCsfE6eI1iGeYh_3std4path7PathBufEB5_
FN:31,_RNvMNtCskKS2THUrLBv_28code_management_code_loading11code_loaderNtB2_10CodeLoader13verify_module
FN:54,_RNvNtNtCskKS2THUrLBv_28code_management_code_loading11code_loader5testss_16test_code_loader
FNDA:1,_RINvMNtCskKS2THUrLBv_28code_management_code_loading11code_loaderNtB3_10CodeLoader11load_moduleRNtNtCsfE6eI1iGeYh_3std4path7PathBufEB5_
FNDA:1,_RNvMNtCskKS2THUrLBv_28code_management_code_loading11code_loaderNtB2_10CodeLoader13verify_module
FNDA:1,_RNvNtNtCskKS2THUrLBv_28code_management_code_loading11code_loader5testss_16test_code_loader
FNF:3
FNH:3
DA:20,1
DA:21,1
DA:22,1
DA:31,1
DA:33,1
DA:34,1
DA:54,1
DA:55,1
DA:56,1
DA:58,1
DA:59,1
DA:60,1
DA:62,1
DA:63,1
BRF:0
BRH:0
LF:14
LH:14
end_of_record
SF:/Volumes/Files_1/iron-beam/rust-conversion/rust/code_management/code_management_code_loading/src/code_save_restore.rs
FN:32,_RINvMNtCskKS2THUrLBv_28code_management_code_loading17code_save_restoreNtB3_15CodeSaveRestore12restore_codeRNtNtCsfE6eI1iGeYh_3std4path7PathBufEB5_
FN:21,_RINvMNtCskKS2THUrLBv_28code_management_code_loading17code_save_restoreNtB3_15CodeSaveRestore9save_codeRNtNtCsfE6eI1iGeYh_3std4path7PathBufEB5_
FN:57,_RNvNtNtCskKS2THUrLBv_28code_management_code_loading17code_save_restore5testss_22test_code_save_restore
FNDA:1,_RINvMNtCskKS2THUrLBv_28code_management_code_loading17code_save_restoreNtB3_15CodeSaveRestore12restore_codeRNtNtCsfE6eI1iGeYh_3std4path7PathBufEB5_
FNDA:1,_RINvMNtCskKS2THUrLBv_28code_management_code_loading17code_save_restoreNtB3_15CodeSaveRestore9save_codeRNtNtCsfE6eI1iGeYh_3std4path7PathBufEB5_
FNDA:1,_RNvNtNtCskKS2THUrLBv_28code_management_code_loading17code_save_restore5testss_22test_code_save_restore
FNF:3
FNH:3
DA:21,1
DA:22,1
DA:23,1
DA:32,1
DA:33,1
DA:34,1
DA:57,1
DA:58,1
DA:59,1
DA:60,1
DA:62,1
DA:63,1
DA:64,1
DA:66,1
DA:67,1
BRF:0
BRH:0
LF:15
LH:15
end_of_record
SF:/Volumes/Files_1/iron-beam/rust-conversion/rust/code_management/code_management_code_loading/src/unicode.rs
FN:47,_RNvNtNtCskKS2THUrLBv_28code_management_code_loading7unicode5testss_20test_unicode_handler
FN:30,_RNCNvMNtCskKS2THUrLBv_28code_management_code_loading7unicodeNtB4_14UnicodeHandler14to_utf8_string0B6_
FN:17,_RNvMNtCskKS2THUrLBv_28code_management_code_loading7unicodeNtB2_14UnicodeHandler13validate_utf8
FN:28,_RNvMNtCskKS2THUrLBv_28code_management_code_loading7unicodeNtB2_14UnicodeHandler14to_utf8_string
FNDA:1,_RNvNtNtCskKS2THUrLBv_28code_management_code_loading7unicode5testss_20test_unicode_handler
FNDA:1,_RNCNvMNtCskKS2THUrLBv_28code_management_code_loading7unicodeNtB4_14UnicodeHandler14to_utf8_string0B6_
FNDA:2,_RNvMNtCskKS2THUrLBv_28code_management_code_loading7unicodeNtB2_14UnicodeHandler13validate_utf8
FNDA:1,_RNvMNtCskKS2THUrLBv_28code_management_code_loading7unicodeNtB2_14UnicodeHandler14to_utf8_string
FNF:4
FNH:4
DA:17,2
DA:18,2
DA:19,2
DA:28,1
DA:29,1
DA:30,1
DA:31,1
DA:32,1
DA:47,1
DA:48,1
DA:49,1
DA:50,1
DA:52,1
DA:53,1
DA:54,1
BRF:0
BRH:0
LF:16
LH:16
end_of_record
SF:/Volumes/Files_1/iron-beam/rust-conversion/rust/entities/entities_data_handling/src/atom.rs
FN:163,_RNvMNtCscP3qNAM1zpZ_22entities_data_handling4atomNtB2_9AtomTable18validate_atom_name
FN:140,_RNvMNtCscP3qNAM1zpZ_22entities_data_handling4atomNtB2_9AtomTable3get
FN:77,_RNvMNtCscP3qNAM1zpZ_22entities_data_handling4atomNtB2_9AtomTable3new
FN:159,_RNvMNtCscP3qNAM1zpZ_22entities_data_handling4atomNtB2_9AtomTable4size
FN:153,_RNvMNtCscP3qNAM1zpZ_22entities_data_handling4atomNtB2_9AtomTable8get_name
FN:95,_RNvMNtCscP3qNAM1zpZ_22entities_data_handling4atomNtB2_9AtomTable9put_index
FN:227,_RNvNtCscP3qNAM1zpZ_22entities_data_handling4atom13validate_utf8
FN:212,_RNvNtCscP3qNAM1zpZ_22entities_data_handling4atom14latin1_to_utf8
FN:583,_RNvNtNtCscP3qNAM1zpZ_22entities_data_handling4atom5testss_15test_table_full
FN:372,_RNvNtNtCscP3qNAM1zpZ_22entities_data_handling4atom5testss_17test_atom_put_get
FN:395,_RNvNtNtCscP3qNAM1zpZ_22entities_data_handling4atom5testss_18test_atom_get_name
FN:382,_RNvNtNtCscP3qNAM1zpZ_22entities_data_handling4atom5testss_19test_atom_duplicate
FN:634,_RNvNtNtCscP3qNAM1zpZ_22entities_data_handling4atom5testss_20test_latin1_encoding
FN:654,_RNvNtNtCscP3qNAM1zpZ_22entities_data_handling4atom5testss_20test_latin1_too_long
FN:671,_RNvNtNtCscP3qNAM1zpZ_22entities_data_handling4atom5testss_20test_latin1_truncate
FN:366,_RNvNtNtCscP3qNAM1zpZ_22entities_data_handling4atom5testss_24test_atom_table_creation
FN:692,_RNvNtNtCscP3qNAM1zpZ_22entities_data_handling4atom5testss_25test_get_invalid_encoding
FN:792,_RNvNtNtCscP3qNAM1zpZ_22entities_data_handling4atom5testss_25test_index_to_name_resize
FN:405,_RNvNtNtCscP3qNAM1zpZ_22entities_data_handling4atom5testss_26test_utf8_validation_valid
FN:711,_RNvNtNtCscP3qNAM1zpZ_22entities_data_handling4atom5testss_27test_get_name_invalid_index
FN:617,_RNvNtNtCscP3qNAM1zpZ_22entities_data_handling4atom5testss_29test_seven_bit_ascii_too_long
FN:550,_RNvNtNtCscP3qNAM1zpZ_22entities_data_handling4atom5testss_29test_utf8_validation_truncate
FN:536,_RNvNtNtCscP3qNAM1zpZ_22entities_data_handling4atom5testss_31test_utf8_validation_byte_limit
FN:841,_RNvNtNtCscP3qNAM1zpZ_22entities_data_handling4atom5testss_31test_utf8_validation_edge_cases
FN:810,_RNvNtNtCscP3qNAM1zpZ_22entities_data_handling4atom5testss_32test_seven_bit_ascii_exact_limit
FN:824,_RNvNtNtCscP3qNAM1zpZ_22entities_data_handling4atom5testss_36test_latin1_mixed_ascii_and_extended
FN:520,_RNvNtNtCscP3qNAM1zpZ_22entities_data_handling4atom5testss_36test_utf8_validation_character_limit
FN:569,_RNvNtNtCscP3qNAM1zpZ_22entities_data_handling4atom5testss_36test_utf8_validation_mixed_sequences
FN:598,_RNvNtNtCscP3qNAM1zpZ_22entities_data_handling4atom5testss_37test_seven_bit_ascii_invalid_encoding
FN:425,_RNvNtNtCscP3qNAM1zpZ_22entities_data_handling4atom5testss_37test_utf8_validation_invalid_overlong
FN:489,_RNvNtNtCscP3qNAM1zpZ_22entities_data_handling4atom5testss_38test_utf8_validation_invalid_surrogate
FN:451,_RNvNtNtCscP3qNAM1zpZ_22entities_data_handling4atom5testss_39test_utf8_validation_invalid_incomplete
FN:868,_RNvNtNtCscP3qNAM1zpZ_22entities_data_handling4atom5testss_39test_utf8_validation_invalid_start_byte
FN:729,_RNvNtNtCscP3qNAM1zpZ_22entities_data_handling4atom5testss_40test_utf8_validation_byte_limit_truncate
FN:477,_RNvNtNtCscP3qNAM1zpZ_22entities_data_handling4atom5testss_41test_utf8_validation_invalid_continuation
FN:501,_RNvNtNtCscP3qNAM1zpZ_22entities_data_handling4atom5testss_41test_utf8_validation_invalid_out_of_range
FN:751,_RNvNtNtCscP3qNAM1zpZ_22entities_data_handling4atom5testss_48test_utf8_validation_character_limit_at_boundary
FN:771,_RNvNtNtCscP3qNAM1zpZ_22entities_data_handling4atom5testss_51test_utf8_validation_truncate_at_character_boundary
FN:163,_RNvMNtCsiKXMdk2HZ3W_22entities_data_handling4atomNtB2_9AtomTable18validate_atom_name
FN:140,_RNvMNtCsiKXMdk2HZ3W_22entities_data_handling4atomNtB2_9AtomTable3get
FN:77,_RNvMNtCsiKXMdk2HZ3W_22entities_data_handling4atomNtB2_9AtomTable3new
FN:159,_RNvMNtCsiKXMdk2HZ3W_22entities_data_handling4atomNtB2_9AtomTable4size
FN:153,_RNvMNtCsiKXMdk2HZ3W_22entities_data_handling4atomNtB2_9AtomTable8get_name
FN:95,_RNvMNtCsiKXMdk2HZ3W_22entities_data_handling4atomNtB2_9AtomTable9put_index
FN:227,_RNvNtCsiKXMdk2HZ3W_22entities_data_handling4atom13validate_utf8
FN:212,_RNvNtCsiKXMdk2HZ3W_22entities_data_handling4atom14latin1_to_utf8
FNDA:65,_RNvMNtCscP3qNAM1zpZ_22entities_data_handling4atomNtB2_9AtomTable18validate_atom_name
FNDA:6,_RNvMNtCscP3qNAM1zpZ_22entities_data_handling4atomNtB2_9AtomTable3get
FNDA:30,_RNvMNtCscP3qNAM1zpZ_22entities_data_handling4atomNtB2_9AtomTable3new
FNDA:1,_RNvMNtCscP3qNAM1zpZ_22entities_data_handling4atomNtB2_9AtomTable4size
FNDA:13,_RNvMNtCscP3qNAM1zpZ_22entities_data_handling4atomNtB2_9AtomTable8get_name
FNDA:59,_RNvMNtCscP3qNAM1zpZ_22entities_data_handling4atomNtB2_9AtomTable9put_index
FNDA:37,_RNvNtCscP3qNAM1zpZ_22entities_data_handling4atom13validate_utf8
FNDA:9,_RNvNtCscP3qNAM1zpZ_22entities_data_handling4atom14latin1_to_utf8
FNDA:1,_RNvNtNtCscP3qNAM1zpZ_22entities_data_handling4atom5testss_15test_table_full
FNDA:1,_RNvNtNtCscP3qNAM1zpZ_22entities_data_handling4atom5testss_17test_atom_put_get
FNDA:1,_RNvNtNtCscP3qNAM1zpZ_22entities_data_handling4atom5testss_18test_atom_get_name
FNDA:1,_RNvNtNtCscP3qNAM1zpZ_22entities_data_handling4atom5testss_19test_atom_duplicate
FNDA:1,_RNvNtNtCscP3qNAM1zpZ_22entities_data_handling4atom5testss_20test_latin1_encoding
FNDA:1,_RNvNtNtCscP3qNAM1zpZ_22entities_data_handling4atom5testss_20test_latin1_too_long
FNDA:1,_RNvNtNtCscP3qNAM1zpZ_22entities_data_handling4atom5testss_20test_latin1_truncate
FNDA:1,_RNvNtNtCscP3qNAM1zpZ_22entities_data_handling4atom5testss_24test_atom_table_creation
FNDA:1,_RNvNtNtCscP3qNAM1zpZ_22entities_data_handling4atom5testss_25test_get_invalid_encoding
FNDA:1,_RNvNtNtCscP3qNAM1zpZ_22entities_data_handling4atom5testss_25test_index_to_name_resize
FNDA:1,_RNvNtNtCscP3qNAM1zpZ_22entities_data_handling4atom5testss_26test_utf8_validation_valid
FNDA:1,_RNvNtNtCscP3qNAM1zpZ_22entities_data_handling4atom5testss_27test_get_name_invalid_index
FNDA:1,_RNvNtNtCscP3qNAM1zpZ_22entities_data_handling4atom5testss_29test_seven_bit_ascii_too_long
FNDA:1,_RNvNtNtCscP3qNAM1zpZ_22entities_data_handling4atom5testss_29test_utf8_validation_truncate
FNDA:1,_RNvNtNtCscP3qNAM1zpZ_22entities_data_handling4atom5testss_31test_utf8_validation_byte_limit
FNDA:1,_RNvNtNtCscP3qNAM1zpZ_22entities_data_handling4atom5testss_31test_utf8_validation_edge_cases
FNDA:1,_RNvNtNtCscP3qNAM1zpZ_22entities_data_handling4atom5testss_32test_seven_bit_ascii_exact_limit
FNDA:1,_RNvNtNtCscP3qNAM1zpZ_22entities_data_handling4atom5testss_36test_latin1_mixed_ascii_and_extended
FNDA:1,_RNvNtNtCscP3qNAM1zpZ_22entities_data_handling4atom5testss_36test_utf8_validation_character_limit
FNDA:1,_RNvNtNtCscP3qNAM1zpZ_22entities_data_handling4atom5testss_36test_utf8_validation_mixed_sequences
FNDA:1,_RNvNtNtCscP3qNAM1zpZ_22entities_data_handling4atom5testss_37test_seven_bit_ascii_invalid_encoding
FNDA:1,_RNvNtNtCscP3qNAM1zpZ_22entities_data_handling4atom5testss_37test_utf8_validation_invalid_overlong
FNDA:1,_RNvNtNtCscP3qNAM1zpZ_22entities_data_handling4atom5testss_38test_utf8_validation_invalid_surrogate
FNDA:1,_RNvNtNtCscP3qNAM1zpZ_22entities_data_handling4atom5testss_39test_utf8_validation_invalid_incomplete
FNDA:1,_RNvNtNtCscP3qNAM1zpZ_22entities_data_handling4atom5testss_39test_utf8_validation_invalid_start_byte
FNDA:1,_RNvNtNtCscP3qNAM1zpZ_22entities_data_handling4atom5testss_40test_utf8_validation_byte_limit_truncate
FNDA:1,_RNvNtNtCscP3qNAM1zpZ_22entities_data_handling4atom5testss_41test_utf8_validation_invalid_continuation
FNDA:1,_RNvNtNtCscP3qNAM1zpZ_22entities_data_handling4atom5testss_41test_utf8_validation_invalid_out_of_range
FNDA:1,_RNvNtNtCscP3qNAM1zpZ_22entities_data_handling4atom5testss_48test_utf8_validation_character_limit_at_boundary
FNDA:1,_RNvNtNtCscP3qNAM1zpZ_22entities_data_handling4atom5testss_51test_utf8_validation_truncate_at_character_boundary
FNDA:20,_RNvMNtCsiKXMdk2HZ3W_22entities_data_handling4atomNtB2_9AtomTable18validate_atom_name
FNDA:5,_RNvMNtCsiKXMdk2HZ3W_22entities_data_handling4atomNtB2_9AtomTable3get
FNDA:4,_RNvMNtCsiKXMdk2HZ3W_22entities_data_handling4atomNtB2_9AtomTable3new
FNDA:0,_RNvMNtCsiKXMdk2HZ3W_22entities_data_handling4atomNtB2_9AtomTable4size
FNDA:4,_RNvMNtCsiKXMdk2HZ3W_22entities_data_handling4atomNtB2_9AtomTable8get_name
FNDA:15,_RNvMNtCsiKXMdk2HZ3W_22entities_data_handling4atomNtB2_9AtomTable9put_index
FNDA:2,_RNvNtCsiKXMdk2HZ3W_22entities_data_handling4atom13validate_utf8
FNDA:0,_RNvNtCsiKXMdk2HZ3W_22entities_data_handling4atom14latin1_to_utf8
FNF:38
FNH:38
DA:77,34
DA:78,34
DA:79,34
DA:80,34
DA:81,34
DA:82,34
DA:83,34
DA:84,34
DA:95,74
DA:96,74
DA:97,74
DA:98,74
DA:99,74
DA:100,74
DA:102,74
DA:106,52
DA:107,52
DA:108,5
DA:109,47
DA:113,47
DA:114,47
DA:115,47
DA:117,47
DA:118,2
DA:119,45
DA:121,45
DA:122,45
DA:123,45
DA:124,45
DA:125,45
DA:126,45
DA:127,45
DA:129,45
DA:130,74
DA:140,11
DA:141,11
DA:142,9
DA:143,9
DA:144,11
DA:153,17
DA:154,17
DA:155,17
DA:156,17
DA:159,1
DA:160,1
DA:161,1
DA:163,85
DA:164,85
DA:165,85
DA:166,85
DA:167,85
DA:168,85
DA:169,85
DA:172,1245
DA:173,1212
DA:174,3
DA:175,1209
DA:177,33
DA:178,33
DA:179,1
DA:180,32
DA:181,32
DA:184,10
DA:185,10
DA:186,1
DA:187,9
DA:189,9
DA:190,9
DA:194,39
DA:195,20
DA:198,85
DA:212,9
DA:215,9
DA:216,808
DA:217,799
DA:218,26
DA:219,773
DA:220,773
DA:221,773
DA:222,773
DA:224,9
DA:225,9
DA:227,39
DA:230,39
DA:231,39
DA:232,39
DA:234,2636
DA:236,2619
DA:237,0
DA:238,0
DA:239,0
DA:240,0
DA:241,2619
DA:244,2619
DA:245,7
DA:246,4
DA:247,3
DA:248,3
DA:249,2612
DA:251,2612
DA:254,2612
DA:255,1052
DA:256,1052
DA:257,1052
DA:258,1052
DA:260,1560
DA:261,520
DA:262,1
DA:263,519
DA:265,519
DA:268,519
DA:269,1
DA:270,518
DA:274,518
DA:275,2
DA:276,516
DA:278,516
DA:279,516
DA:280,516
DA:281,516
DA:284,1040
DA:285,262
DA:286,1
DA:287,261
DA:289,261
DA:290,261
DA:293,261
DA:294,0
DA:295,261
DA:298,261
DA:299,1
DA:300,260
DA:304,260
DA:305,1
DA:306,259
DA:308,259
DA:309,259
DA:310,259
DA:311,259
DA:312,259
DA:315,778
DA:316,774
DA:317,1
DA:318,773
DA:320,773
DA:321,773
DA:322,773
DA:325,773
DA:326,0
DA:327,773
DA:330,773
DA:331,1
DA:332,772
DA:338,772
DA:339,2
DA:340,770
DA:342,770
DA:343,770
DA:344,770
DA:345,770
DA:346,770
DA:347,770
DA:351,4
DA:357,20
DA:358,20
DA:359,39
DA:366,1
DA:367,1
DA:368,1
DA:369,1
DA:372,1
DA:373,1
DA:374,1
DA:375,1
DA:376,1
DA:377,1
DA:378,1
DA:379,1
DA:382,1
DA:383,1
DA:384,1
DA:385,1
DA:386,1
DA:387,1
DA:388,1
DA:389,1
DA:390,1
DA:391,1
DA:392,1
DA:395,1
DA:396,1
DA:397,1
DA:398,1
DA:399,1
DA:400,1
DA:401,1
DA:402,1
DA:405,1
DA:406,1
DA:409,1
DA:412,1
DA:413,1
DA:416,1
DA:417,1
DA:420,1
DA:421,1
DA:422,1
DA:425,1
DA:426,1
DA:429,1
DA:430,1
DA:431,1
DA:436,1
DA:437,1
DA:438,1
DA:443,1
DA:444,1
DA:445,1
DA:448,1
DA:451,1
DA:452,1
DA:455,1
DA:456,1
DA:457,1
DA:462,1
DA:463,1
DA:464,1
DA:469,1
DA:470,1
DA:471,1
DA:474,1
DA:477,1
DA:478,1
DA:481,1
DA:482,1
DA:483,1
DA:486,1
DA:489,1
DA:490,1
DA:493,1
DA:494,1
DA:495,1
DA:498,1
DA:501,1
DA:502,1
DA:505,1
DA:506,1
DA:507,1
DA:512,1
DA:513,1
DA:514,1
DA:517,1
DA:520,1
DA:521,1
DA:524,1
DA:525,1
DA:528,1
DA:529,1
DA:530,1
DA:533,1
DA:536,1
DA:537,1
DA:541,1
DA:542,256
DA:543,255
DA:544,255
DA:545,1
DA:546,1
DA:547,1
DA:550,1
DA:551,1
DA:554,1
DA:557,1
DA:558,1
DA:564,1
DA:565,1
DA:566,1
DA:569,1
DA:570,1
DA:573,1
DA:574,1
DA:577,1
DA:578,1
DA:579,1
DA:580,1
DA:583,1
DA:584,1
DA:587,1
DA:588,1
DA:591,1
DA:592,1
DA:595,1
DA:598,1
DA:599,1
DA:602,1
DA:603,1
DA:604,1
DA:609,1
DA:610,1
DA:611,1
DA:614,1
DA:617,1
DA:618,1
DA:621,1
DA:624,1
DA:625,1
DA:630,1
DA:631,1
DA:634,1
DA:635,1
DA:638,1
DA:639,1
DA:640,1
DA:643,1
DA:644,1
DA:645,1
DA:648,1
DA:650,1
DA:651,1
DA:654,1
DA:655,1
DA:658,1
DA:661,1
DA:662,1
DA:667,1
DA:668,1
DA:671,1
DA:672,1
DA:675,1
DA:676,1
DA:679,1
DA:680,1
DA:681,1
DA:684,1
DA:685,1
DA:688,1
DA:689,1
DA:692,1
DA:693,1
DA:696,1
DA:697,1
DA:698,1
DA:703,1
DA:704,1
DA:705,1
DA:708,1
DA:711,1
DA:712,1
DA:715,1
DA:718,1
DA:721,1
DA:722,1
DA:725,1
DA:726,1
DA:729,1
DA:730,1
DA:733,1
DA:735,266
DA:736,266
DA:737,266
DA:740,1
DA:741,1
DA:746,1
DA:747,1
DA:748,1
DA:751,1
DA:752,1
DA:755,1
DA:756,256
DA:757,255
DA:758,255
DA:759,1
DA:762,1
DA:763,1
DA:764,1
DA:765,1
DA:768,1
DA:771,1
DA:772,1
DA:775,1
DA:776,260
DA:777,260
DA:778,260
DA:781,1
DA:782,1
DA:785,1
DA:786,1
DA:788,1
DA:789,1
DA:792,1
DA:793,1
DA:797,1
DA:798,1
DA:801,1
DA:802,1
DA:805,1
DA:806,1
DA:807,1
DA:810,1
DA:811,1
DA:814,1
DA:815,1
DA:818,1
DA:819,1
DA:820,1
DA:821,1
DA:824,1
DA:825,1
DA:828,1
DA:829,1
DA:832,1
DA:835,1
DA:837,1
DA:838,1
DA:841,1
DA:842,1
DA:845,1
DA:848,1
DA:851,1
DA:852,1
DA:855,1
DA:856,1
DA:859,1
DA:860,1
DA:863,1
DA:864,1
DA:865,1
DA:868,1
DA:869,1
DA:872,1
DA:873,1
DA:874,1
DA:879,1
DA:880,1
DA:881,1
DA:886,1
DA:887,1
DA:888,1
DA:893,1
DA:894,1
DA:895,1
DA:898,1
BRF:0
BRH:0
LF:442
LH:436
end_of_record
SF:/Volumes/Files_1/iron-beam/rust-conversion/rust/entities/entities_data_handling/src/atomics.rs
FN:45,_RNvMNtCscP3qNAM1zpZ_22entities_data_handling7atomicsNtB2_16DoubleWordAtomic16compare_exchange
FN:38,_RNvMNtCscP3qNAM1zpZ_22entities_data_handling7atomicsNtB2_16DoubleWordAtomic3new
FN:56,_RNvMNtCscP3qNAM1zpZ_22entities_data_handling7atomicsNtB2_16DoubleWordAtomic4load
FN:61,_RNvMNtCscP3qNAM1zpZ_22entities_data_handling7atomicsNtB2_16DoubleWordAtomic5store
FN:68,_RNvNtCscP3qNAM1zpZ_22entities_data_handling7atomics21have_native_dw_atomic
FN:89,_RNvNtNtCscP3qNAM1zpZ_22entities_data_handling7atomics5testss_21test_compare_exchange
FN:142,_RNvNtNtCscP3qNAM1zpZ_22entities_data_handling7atomics5testss_22test_atomic_edge_cases
FN:106,_RNvNtNtCscP3qNAM1zpZ_22entities_data_handling7atomics5testss_24test_different_orderings
FN:81,_RNvNtNtCscP3qNAM1zpZ_22entities_data_handling7atomics5testss_25test_dw_atomic_operations
FN:124,_RNvNtNtCscP3qNAM1zpZ_22entities_data_handling7atomics5testss_26test_have_native_dw_atomic
FN:97,_RNvNtNtCscP3qNAM1zpZ_22entities_data_handling7atomics5testss_29test_compare_exchange_failure
FN:161,_RNvNtNtCscP3qNAM1zpZ_22entities_data_handling7atomics5testss_41test_multiple_compare_exchange_operations
FNDA:7,_RNvMNtCscP3qNAM1zpZ_22entities_data_handling7atomicsNtB2_16DoubleWordAtomic16compare_exchange
FNDA:6,_RNvMNtCscP3qNAM1zpZ_22entities_data_handling7atomicsNtB2_16DoubleWordAtomic3new
FNDA:13,_RNvMNtCscP3qNAM1zpZ_22entities_data_handling7atomicsNtB2_16DoubleWordAtomic4load
FNDA:5,_RNvMNtCscP3qNAM1zpZ_22entities_data_handling7atomicsNtB2_16DoubleWordAtomic5store
FNDA:3,_RNvNtCscP3qNAM1zpZ_22entities_data_handling7atomics21have_native_dw_atomic
FNDA:1,_RNvNtNtCscP3qNAM1zpZ_22entities_data_handling7atomics5testss_21test_compare_exchange
FNDA:1,_RNvNtNtCscP3qNAM1zpZ_22entities_data_handling7atomics5testss_22test_atomic_edge_cases
FNDA:1,_RNvNtNtCscP3qNAM1zpZ_22entities_data_handling7atomics5testss_24test_different_orderings
FNDA:1,_RNvNtNtCscP3qNAM1zpZ_22entities_data_handling7atomics5testss_25test_dw_atomic_operations
FNDA:1,_RNvNtNtCscP3qNAM1zpZ_22entities_data_handling7atomics5testss_26test_have_native_dw_atomic
FNDA:1,_RNvNtNtCscP3qNAM1zpZ_22entities_data_handling7atomics5testss_29test_compare_exchange_failure
FNDA:1,_RNvNtNtCscP3qNAM1zpZ_22entities_data_handling7atomics5testss_41test_multiple_compare_exchange_operations
FNF:12
FNH:12
DA:38,6
DA:39,6
DA:40,6
DA:41,6
DA:42,6
DA:45,7
DA:46,7
DA:47,7
DA:48,7
DA:49,7
DA:50,7
DA:51,7
DA:52,7
DA:53,7
DA:56,13
DA:57,13
DA:58,13
DA:61,5
DA:62,5
DA:63,5
DA:68,3
DA:71,3
DA:72,3
DA:73,3
DA:81,1
DA:82,1
DA:83,1
DA:84,1
DA:85,1
DA:86,1
DA:89,1
DA:90,1
DA:91,1
DA:92,1
DA:93,1
DA:94,1
DA:97,1
DA:98,1
DA:100,1
DA:101,1
DA:102,1
DA:103,1
DA:106,1
DA:107,1
DA:110,1
DA:111,1
DA:114,1
DA:115,1
DA:118,1
DA:119,1
DA:120,1
DA:121,1
DA:124,1
DA:126,1
DA:131,1
DA:133,1
DA:136,1
DA:137,1
DA:138,1
DA:139,1
DA:142,1
DA:143,1
DA:146,1
DA:147,1
DA:148,1
DA:151,1
DA:152,1
DA:155,1
DA:156,1
DA:157,1
DA:158,1
DA:161,1
DA:162,1
DA:165,1
DA:166,1
DA:167,1
DA:170,1
DA:171,1
DA:172,1
DA:175,1
DA:176,1
DA:177,1
DA:178,1
BRF:0
BRH:0
LF:83
LH:83
end_of_record
SF:/Volumes/Files_1/iron-beam/rust-conversion/rust/entities/entities_data_handling/src/binary.rs
FN:51,_RNvNtNtCscP3qNAM1zpZ_22entities_data_handling6binary5testss_20test_binary_creation
FN:36,_RNvMNtCscP3qNAM1zpZ_22entities_data_handling6binaryNtB2_6Binary3new
FN:41,_RNvMNtCscP3qNAM1zpZ_22entities_data_handling6binaryNtB2_6Binary4data
FNDA:1,_RNvNtNtCscP3qNAM1zpZ_22entities_data_handling6binary5testss_20test_binary_creation
FNDA:1,_RNvMNtCscP3qNAM1zpZ_22entities_data_handling6binaryNtB2_6Binary3new
FNDA:1,_RNvMNtCscP3qNAM1zpZ_22entities_data_handling6binaryNtB2_6Binary4data
FNF:3
FNH:3
DA:36,1
DA:37,1
DA:38,1
DA:41,1
DA:42,1
DA:43,1
DA:51,1
DA:52,1
DA:53,1
DA:54,1
DA:55,1
BRF:0
BRH:0
LF:11
LH:11
end_of_record
SF:/Volumes/Files_1/iron-beam/rust-conversion/rust/entities/entities_data_handling/src/bits.rs
FN:402,_RNvNtNtCscP3qNAM1zpZ_22entities_data_handling4bits5testss_10test_nbits
FN:392,_RNvNtNtCscP3qNAM1zpZ_22entities_data_handling4bits5testss_11test_nbytes
FN:447,_RNvNtNtCscP3qNAM1zpZ_22entities_data_handling4bits5testss_12test_get_bit
FN:471,_RNvNtNtCscP3qNAM1zpZ_22entities_data_handling4bits5testss_12test_set_bit
FN:428,_RNvNtNtCscP3qNAM1zpZ_22entities_data_handling4bits5testss_14test_make_mask
FN:438,_RNvNtNtCscP3qNAM1zpZ_22entities_data_handling4bits5testss_14test_mask_bits
FN:419,_RNvNtNtCscP3qNAM1zpZ_22entities_data_handling4bits5testss_15test_bit_offset
FN:410,_RNvNtNtCscP3qNAM1zpZ_22entities_data_handling4bits5testss_16test_byte_offset
FN:543,_RNvNtNtCscP3qNAM1zpZ_22entities_data_handling4bits5testss_19test_cmp_bits_equal
FN:874,_RNvNtNtCscP3qNAM1zpZ_22entities_data_handling4bits5testss_20test_make_mask_large
FN:551,_RNvNtNtCscP3qNAM1zpZ_22entities_data_handling4bits5testss_23test_cmp_bits_different
FN:560,_RNvNtNtCscP3qNAM1zpZ_22entities_data_handling4bits5testss_23test_cmp_bits_unaligned
FN:860,_RNvNtNtCscP3qNAM1zpZ_22entities_data_handling4bits5testss_25test_get_bit_out_of_range
FN:881,_RNvNtNtCscP3qNAM1zpZ_22entities_data_handling4bits5testss_25test_make_mask_exactly_64
FN:867,_RNvNtNtCscP3qNAM1zpZ_22entities_data_handling4bits5testss_25test_set_bit_out_of_range
FN:842,_RNvNtNtCscP3qNAM1zpZ_22entities_data_handling4bits5testss_28test_cmp_bits_large_sequence
FN:600,_RNvNtNtCscP3qNAM1zpZ_22entities_data_handling4bits5testss_28test_copy_bits_forward_empty
FN:815,_RNvNtNtCscP3qNAM1zpZ_22entities_data_handling4bits5testss_29test_cmp_bits_a_out_of_bounds
FN:824,_RNvNtNtCscP3qNAM1zpZ_22entities_data_handling4bits5testss_29test_cmp_bits_b_out_of_bounds
FN:482,_RNvNtNtCscP3qNAM1zpZ_22entities_data_handling4bits5testss_29test_copy_bits_forward_simple
FN:851,_RNvNtNtCscP3qNAM1zpZ_22entities_data_handling4bits5testss_30test_cmp_bits_different_at_end
FN:504,_RNvNtNtCscP3qNAM1zpZ_22entities_data_handling4bits5testss_30test_copy_bits_forward_aligned
FN:833,_RNvNtNtCscP3qNAM1zpZ_22entities_data_handling4bits5testss_32test_cmp_bits_both_out_of_bounds
FN:514,_RNvNtNtCscP3qNAM1zpZ_22entities_data_handling4bits5testss_32test_copy_bits_forward_unaligned
FN:573,_RNvNtNtCscP3qNAM1zpZ_22entities_data_handling4bits5testss_35test_copy_bits_forward_partial_byte
FN:888,_RNvNtNtCscP3qNAM1zpZ_22entities_data_handling4bits5testss_40test_copy_bits_forward_dst_bit_zero_path
FN:619,_RNvNtNtCscP3qNAM1zpZ_22entities_data_handling4bits5testss_40test_copy_bits_forward_dst_out_of_bounds
FN:609,_RNvNtNtCscP3qNAM1zpZ_22entities_data_handling4bits5testss_40test_copy_bits_forward_src_out_of_bounds
FN:653,_RNvNtNtCscP3qNAM1zpZ_22entities_data_handling4bits5testss_41test_copy_bits_forward_multi_byte_aligned
FN:629,_RNvNtNtCscP3qNAM1zpZ_22entities_data_handling4bits5testss_46test_copy_bits_forward_bits_span_two_bytes_src
FN:677,_RNvNtNtCscP3qNAM1zpZ_22entities_data_handling4bits5testss_47test_copy_bits_forward_multi_byte_unaligned_dst
FN:665,_RNvNtNtCscP3qNAM1zpZ_22entities_data_handling4bits5testss_47test_copy_bits_forward_multi_byte_unaligned_src
FN:689,_RNvNtNtCscP3qNAM1zpZ_22entities_data_handling4bits5testss_48test_copy_bits_forward_multi_byte_both_unaligned
FN:901,_RNvNtNtCscP3qNAM1zpZ_22entities_data_handling4bits5testss_50test_copy_bits_forward_dst_bit_zero_with_remaining
FN:757,_RNvNtNtCscP3qNAM1zpZ_22entities_data_handling4bits5testss_51test_copy_bits_forward_middle_bytes_src_bit_nonzero
FN:782,_RNvNtNtCscP3qNAM1zpZ_22entities_data_handling4bits5testss_53test_copy_bits_forward_last_byte_partial_src_bit_zero
FN:770,_RNvNtNtCscP3qNAM1zpZ_22entities_data_handling4bits5testss_53test_copy_bits_forward_middle_bytes_src_out_of_bounds
FN:735,_RNvNtNtCscP3qNAM1zpZ_22entities_data_handling4bits5testss_54test_copy_bits_forward_first_byte_partial_src_advances
FN:746,_RNvNtNtCscP3qNAM1zpZ_22entities_data_handling4bits5testss_56test_copy_bits_forward_first_byte_partial_src_no_advance
FN:793,_RNvNtNtCscP3qNAM1zpZ_22entities_data_handling4bits5testss_56test_copy_bits_forward_last_byte_partial_src_bit_nonzero
FN:804,_RNvNtNtCscP3qNAM1zpZ_22entities_data_handling4bits5testss_58test_copy_bits_forward_last_byte_partial_src_out_of_bounds
FN:641,_RNvNtNtCscP3qNAM1zpZ_22entities_data_handling4bits5testss_60test_copy_bits_forward_bits_span_two_bytes_src_out_of_bounds
FN:724,_RNvNtNtCscP3qNAM1zpZ_22entities_data_handling4bits5testss_64test_copy_bits_forward_first_byte_partial_src_bit_equals_dst_bit
FN:701,_RNvNtNtCscP3qNAM1zpZ_22entities_data_handling4bits5testss_67test_copy_bits_forward_first_byte_partial_src_bit_less_than_dst_bit
FN:713,_RNvNtNtCscP3qNAM1zpZ_22entities_data_handling4bits5testss_70test_copy_bits_forward_first_byte_partial_src_bit_greater_than_dst_bit
FN:83,_RNvNtCscP3qNAM1zpZ_22entities_data_handling4bits10bit_offset
FN:70,_RNvNtCscP3qNAM1zpZ_22entities_data_handling4bits11byte_offset
FN:173,_RNvNtCscP3qNAM1zpZ_22entities_data_handling4bits17copy_bits_forward
FN:57,_RNvNtCscP3qNAM1zpZ_22entities_data_handling4bits5nbits
FN:44,_RNvNtCscP3qNAM1zpZ_22entities_data_handling4bits6nbytes
FN:129,_RNvNtCscP3qNAM1zpZ_22entities_data_handling4bits7get_bit
FN:148,_RNvNtCscP3qNAM1zpZ_22entities_data_handling4bits7set_bit
FN:335,_RNvNtCscP3qNAM1zpZ_22entities_data_handling4bits8cmp_bits
FN:96,_RNvNtCscP3qNAM1zpZ_22entities_data_handling4bits9make_mask
FN:115,_RNvNtCscP3qNAM1zpZ_22entities_data_handling4bits9mask_bits
FN:83,_RNvNtCsiKXMdk2HZ3W_22entities_data_handling4bits10bit_offset
FN:70,_RNvNtCsiKXMdk2HZ3W_22entities_data_handling4bits11byte_offset
FN:173,_RNvNtCsiKXMdk2HZ3W_22entities_data_handling4bits17copy_bits_forward
FN:57,_RNvNtCsiKXMdk2HZ3W_22entities_data_handling4bits5nbits
FN:44,_RNvNtCsiKXMdk2HZ3W_22entities_data_handling4bits6nbytes
FN:129,_RNvNtCsiKXMdk2HZ3W_22entities_data_handling4bits7get_bit
FN:148,_RNvNtCsiKXMdk2HZ3W_22entities_data_handling4bits7set_bit
FN:335,_RNvNtCsiKXMdk2HZ3W_22entities_data_handling4bits8cmp_bits
FN:96,_RNvNtCsiKXMdk2HZ3W_22entities_data_handling4bits9make_mask
FN:115,_RNvNtCsiKXMdk2HZ3W_22entities_data_handling4bits9mask_bits
FNDA:1,_RNvNtNtCscP3qNAM1zpZ_22entities_data_handling4bits5testss_10test_nbits
FNDA:1,_RNvNtNtCscP3qNAM1zpZ_22entities_data_handling4bits5testss_11test_nbytes
FNDA:1,_RNvNtNtCscP3qNAM1zpZ_22entities_data_handling4bits5testss_12test_get_bit
FNDA:1,_RNvNtNtCscP3qNAM1zpZ_22entities_data_handling4bits5testss_12test_set_bit
FNDA:1,_RNvNtNtCscP3qNAM1zpZ_22entities_data_handling4bits5testss_14test_make_mask
FNDA:1,_RNvNtNtCscP3qNAM1zpZ_22entities_data_handling4bits5testss_14test_mask_bits
FNDA:1,_RNvNtNtCscP3qNAM1zpZ_22entities_data_handling4bits5testss_15test_bit_offset
FNDA:1,_RNvNtNtCscP3qNAM1zpZ_22entities_data_handling4bits5testss_16test_byte_offset
FNDA:1,_RNvNtNtCscP3qNAM1zpZ_22entities_data_handling4bits5testss_19test_cmp_bits_equal
FNDA:1,_RNvNtNtCscP3qNAM1zpZ_22entities_data_handling4bits5testss_20test_make_mask_large
FNDA:1,_RNvNtNtCscP3qNAM1zpZ_22entities_data_handling4bits5testss_23test_cmp_bits_different
FNDA:1,_RNvNtNtCscP3qNAM1zpZ_22entities_data_handling4bits5testss_23test_cmp_bits_unaligned
FNDA:1,_RNvNtNtCscP3qNAM1zpZ_22entities_data_handling4bits5testss_25test_get_bit_out_of_range
FNDA:1,_RNvNtNtCscP3qNAM1zpZ_22entities_data_handling4bits5testss_25test_make_mask_exactly_64
FNDA:1,_RNvNtNtCscP3qNAM1zpZ_22entities_data_handling4bits5testss_25test_set_bit_out_of_range
FNDA:1,_RNvNtNtCscP3qNAM1zpZ_22entities_data_handling4bits5testss_28test_cmp_bits_large_sequence
FNDA:1,_RNvNtNtCscP3qNAM1zpZ_22entities_data_handling4bits5testss_28test_copy_bits_forward_empty
FNDA:1,_RNvNtNtCscP3qNAM1zpZ_22entities_data_handling4bits5testss_29test_cmp_bits_a_out_of_bounds
FNDA:1,_RNvNtNtCscP3qNAM1zpZ_22entities_data_handling4bits5testss_29test_cmp_bits_b_out_of_bounds
FNDA:1,_RNvNtNtCscP3qNAM1zpZ_22entities_data_handling4bits5testss_29test_copy_bits_forward_simple
FNDA:1,_RNvNtNtCscP3qNAM1zpZ_22entities_data_handling4bits5testss_30test_cmp_bits_different_at_end
FNDA:1,_RNvNtNtCscP3qNAM1zpZ_22entities_data_handling4bits5testss_30test_copy_bits_forward_aligned
FNDA:1,_RNvNtNtCscP3qNAM1zpZ_22entities_data_handling4bits5testss_32test_cmp_bits_both_out_of_bounds
FNDA:1,_RNvNtNtCscP3qNAM1zpZ_22entities_data_handling4bits5testss_32test_copy_bits_forward_unaligned
FNDA:1,_RNvNtNtCscP3qNAM1zpZ_22entities_data_handling4bits5testss_35test_copy_bits_forward_partial_byte
FNDA:1,_RNvNtNtCscP3qNAM1zpZ_22entities_data_handling4bits5testss_40test_copy_bits_forward_dst_bit_zero_path
FNDA:1,_RNvNtNtCscP3qNAM1zpZ_22entities_data_handling4bits5testss_40test_copy_bits_forward_dst_out_of_bounds
FNDA:1,_RNvNtNtCscP3qNAM1zpZ_22entities_data_handling4bits5testss_40test_copy_bits_forward_src_out_of_bounds
FNDA:1,_RNvNtNtCscP3qNAM1zpZ_22entities_data_handling4bits5testss_41test_copy_bits_forward_multi_byte_aligned
FNDA:1,_RNvNtNtCscP3qNAM1zpZ_22entities_data_handling4bits5testss_46test_copy_bits_forward_bits_span_two_bytes_src
FNDA:1,_RNvNtNtCscP3qNAM1zpZ_22entities_data_handling4bits5testss_47test_copy_bits_forward_multi_byte_unaligned_dst
FNDA:1,_RNvNtNtCscP3qNAM1zpZ_22entities_data_handling4bits5testss_47test_copy_bits_forward_multi_byte_unaligned_src
FNDA:1,_RNvNtNtCscP3qNAM1zpZ_22entities_data_handling4bits5testss_48test_copy_bits_forward_multi_byte_both_unaligned
FNDA:1,_RNvNtNtCscP3qNAM1zpZ_22entities_data_handling4bits5testss_50test_copy_bits_forward_dst_bit_zero_with_remaining
FNDA:1,_RNvNtNtCscP3qNAM1zpZ_22entities_data_handling4bits5testss_51test_copy_bits_forward_middle_bytes_src_bit_nonzero
FNDA:1,_RNvNtNtCscP3qNAM1zpZ_22entities_data_handling4bits5testss_53test_copy_bits_forward_last_byte_partial_src_bit_zero
FNDA:1,_RNvNtNtCscP3qNAM1zpZ_22entities_data_handling4bits5testss_53test_copy_bits_forward_middle_bytes_src_out_of_bounds
FNDA:1,_RNvNtNtCscP3qNAM1zpZ_22entities_data_handling4bits5testss_54test_copy_bits_forward_first_byte_partial_src_advances
FNDA:1,_RNvNtNtCscP3qNAM1zpZ_22entities_data_handling4bits5testss_56test_copy_bits_forward_first_byte_partial_src_no_advance
FNDA:1,_RNvNtNtCscP3qNAM1zpZ_22entities_data_handling4bits5testss_56test_copy_bits_forward_last_byte_partial_src_bit_nonzero
FNDA:1,_RNvNtNtCscP3qNAM1zpZ_22entities_data_handling4bits5testss_58test_copy_bits_forward_last_byte_partial_src_out_of_bounds
FNDA:1,_RNvNtNtCscP3qNAM1zpZ_22entities_data_handling4bits5testss_60test_copy_bits_forward_bits_span_two_bytes_src_out_of_bounds
FNDA:1,_RNvNtNtCscP3qNAM1zpZ_22entities_data_handling4bits5testss_64test_copy_bits_forward_first_byte_partial_src_bit_equals_dst_bit
FNDA:1,_RNvNtNtCscP3qNAM1zpZ_22entities_data_handling4bits5testss_67test_copy_bits_forward_first_byte_partial_src_bit_less_than_dst_bit
FNDA:1,_RNvNtNtCscP3qNAM1zpZ_22entities_data_handling4bits5testss_70test_copy_bits_forward_first_byte_partial_src_bit_greater_than_dst_bit
FNDA:1531,_RNvNtCscP3qNAM1zpZ_22entities_data_handling4bits10bit_offset
FNDA:2231,_RNvNtCscP3qNAM1zpZ_22entities_data_handling4bits11byte_offset
FNDA:754,_RNvNtCscP3qNAM1zpZ_22entities_data_handling4bits17copy_bits_forward
FNDA:4,_RNvNtCscP3qNAM1zpZ_22entities_data_handling4bits5nbits
FNDA:729,_RNvNtCscP3qNAM1zpZ_22entities_data_handling4bits6nbytes
FNDA:200,_RNvNtCscP3qNAM1zpZ_22entities_data_handling4bits7get_bit
FNDA:7,_RNvNtCscP3qNAM1zpZ_22entities_data_handling4bits7set_bit
FNDA:10,_RNvNtCscP3qNAM1zpZ_22entities_data_handling4bits8cmp_bits
FNDA:736,_RNvNtCscP3qNAM1zpZ_22entities_data_handling4bits9make_mask
FNDA:654,_RNvNtCscP3qNAM1zpZ_22entities_data_handling4bits9mask_bits
FNDA:0,_RNvNtCsiKXMdk2HZ3W_22entities_data_handling4bits10bit_offset
FNDA:0,_RNvNtCsiKXMdk2HZ3W_22entities_data_handling4bits11byte_offset
FNDA:0,_RNvNtCsiKXMdk2HZ3W_22entities_data_handling4bits17copy_bits_forward
FNDA:0,_RNvNtCsiKXMdk2HZ3W_22entities_data_handling4bits5nbits
FNDA:0,_RNvNtCsiKXMdk2HZ3W_22entities_data_handling4bits6nbytes
FNDA:0,_RNvNtCsiKXMdk2HZ3W_22entities_data_handling4bits7get_bit
FNDA:0,_RNvNtCsiKXMdk2HZ3W_22entities_data_handling4bits7set_bit
FNDA:0,_RNvNtCsiKXMdk2HZ3W_22entities_data_handling4bits8cmp_bits
FNDA:0,_RNvNtCsiKXMdk2HZ3W_22entities_data_handling4bits9make_mask
FNDA:0,_RNvNtCsiKXMdk2HZ3W_22entities_data_handling4bits9mask_bits
FNF:55
FNH:55
DA:44,729
DA:45,729
DA:46,729
DA:57,4
DA:58,4
DA:59,4
DA:70,2231
DA:71,2231
DA:72,2231
DA:83,1531
DA:84,1531
DA:85,1531
DA:96,736
DA:97,736
DA:98,5
DA:100,731
DA:102,736
DA:115,654
DA:116,654
DA:117,654
DA:129,200
DA:130,200
DA:131,2
DA:133,198
DA:135,200
DA:148,7
DA:149,7
DA:150,2
DA:151,5
DA:152,5
DA:153,5
DA:154,3
DA:156,2
DA:158,7
DA:173,754
DA:174,754
DA:175,754
DA:176,754
DA:177,754
DA:178,754
DA:179,754
DA:180,754
DA:181,1
DA:182,753
DA:184,753
DA:185,753
DA:186,753
DA:187,753
DA:191,753
DA:192,58
DA:193,58
DA:195,58
DA:196,57
DA:198,1
DA:202,58
DA:203,58
DA:205,35
DA:208,23
DA:209,23
DA:210,22
DA:212,1
DA:214,23
DA:215,23
DA:219,58
DA:221,58
DA:222,58
DA:223,58
DA:224,58
DA:225,695
DA:228,695
DA:229,695
DA:230,695
DA:231,695
DA:232,695
DA:235,695
DA:236,13
DA:237,13
DA:238,13
DA:239,13
DA:241,13
DA:242,13
DA:244,0
DA:248,13
DA:249,13
DA:250,9
DA:253,4
DA:254,4
DA:255,4
DA:256,4
DA:260,13
DA:262,13
DA:263,12
DA:264,12
DA:266,13
DA:267,6
DA:268,6
DA:269,7
DA:270,7
DA:271,7
DA:273,13
DA:274,13
DA:275,13
DA:276,682
DA:279,5195
DA:280,4500
DA:281,4500
DA:282,10
DA:284,4490
DA:285,4489
DA:287,1
DA:289,4490
DA:292,4500
DA:293,4500
DA:294,4500
DA:295,4500
DA:299,695
DA:300,583
DA:301,583
DA:302,579
DA:304,4
DA:307,583
DA:308,6
DA:310,577
DA:311,575
DA:313,2
DA:315,577
DA:318,583
DA:319,112
DA:320,754
DA:335,10
DA:336,10
DA:337,10
DA:338,10
DA:339,10
DA:340,10
DA:341,10
DA:342,10
DA:343,0
DA:344,10
DA:346,10
DA:347,10
DA:348,10
DA:349,10
DA:350,10
DA:352,105
DA:353,102
DA:354,93
DA:356,9
DA:359,102
DA:360,93
DA:362,9
DA:365,102
DA:366,3
DA:367,99
DA:368,4
DA:369,95
DA:371,95
DA:372,95
DA:373,95
DA:374,11
DA:375,11
DA:376,84
DA:377,95
DA:378,95
DA:379,11
DA:380,11
DA:381,84
DA:384,3
DA:385,10
DA:392,1
DA:393,1
DA:394,1
DA:395,1
DA:396,1
DA:397,1
DA:398,1
DA:399,1
DA:402,1
DA:403,1
DA:404,1
DA:405,1
DA:406,1
DA:407,1
DA:410,1
DA:411,1
DA:412,1
DA:413,1
DA:414,1
DA:415,1
DA:416,1
DA:419,1
DA:420,1
DA:421,1
DA:422,1
DA:423,1
DA:424,1
DA:425,1
DA:428,1
DA:429,1
DA:430,1
DA:431,1
DA:432,1
DA:433,1
DA:434,1
DA:435,1
DA:438,1
DA:439,1
DA:440,1
DA:441,1
DA:442,1
DA:443,1
DA:444,1
DA:447,1
DA:448,1
DA:450,1
DA:451,1
DA:452,1
DA:453,1
DA:454,1
DA:455,1
DA:456,1
DA:457,1
DA:460,1
DA:461,1
DA:462,1
DA:465,1
DA:466,1
DA:467,1
DA:468,1
DA:471,1
DA:472,1
DA:474,1
DA:475,1
DA:476,1
DA:477,1
DA:478,1
DA:479,1
DA:482,1
DA:483,1
DA:484,1
DA:488,1
DA:489,1
DA:493,1
DA:494,1
DA:495,1
DA:498,1
DA:499,1
DA:500,1
DA:501,1
DA:504,1
DA:505,1
DA:506,1
DA:508,1
DA:509,1
DA:510,1
DA:511,1
DA:514,1
DA:515,1
DA:516,1
DA:520,1
DA:521,1
DA:524,1
DA:525,1
DA:527,1
DA:530,1
DA:531,1
DA:533,1
DA:536,1
DA:537,1
DA:539,1
DA:540,1
DA:543,1
DA:544,1
DA:545,1
DA:547,1
DA:548,1
DA:551,1
DA:552,1
DA:553,1
DA:555,1
DA:556,1
DA:557,1
DA:560,1
DA:562,1
DA:563,1
DA:566,1
DA:569,1
DA:570,1
DA:573,1
DA:574,1
DA:576,1
DA:584,1
DA:585,1
DA:589,1
DA:590,1
DA:596,1
DA:597,1
DA:600,1
DA:601,1
DA:602,1
DA:604,1
DA:605,1
DA:606,1
DA:609,1
DA:610,1
DA:611,1
DA:614,1
DA:615,1
DA:616,1
DA:619,1
DA:620,1
DA:621,1
DA:624,1
DA:625,1
DA:626,1
DA:629,1
DA:630,1
DA:631,1
DA:635,1
DA:637,1
DA:638,1
DA:641,1
DA:642,1
DA:643,1
DA:647,1
DA:649,1
DA:650,1
DA:653,1
DA:654,1
DA:655,1
DA:658,1
DA:659,1
DA:660,1
DA:661,1
DA:662,1
DA:665,1
DA:666,1
DA:667,1
DA:670,1
DA:672,1
DA:673,1
DA:674,1
DA:677,1
DA:678,1
DA:679,1
DA:682,1
DA:684,1
DA:685,1
DA:686,1
DA:689,1
DA:690,1
DA:691,1
DA:694,1
DA:696,1
DA:697,1
DA:698,1
DA:701,1
DA:702,1
DA:703,1
DA:707,1
DA:709,1
DA:710,1
DA:713,1
DA:714,1
DA:715,1
DA:718,1
DA:720,1
DA:721,1
DA:724,1
DA:725,1
DA:726,1
DA:729,1
DA:731,1
DA:732,1
DA:735,1
DA:736,1
DA:737,1
DA:740,1
DA:742,1
DA:743,1
DA:746,1
DA:747,1
DA:748,1
DA:751,1
DA:753,1
DA:754,1
DA:757,1
DA:758,1
DA:759,1
DA:762,1
DA:765,1
DA:766,1
DA:767,1
DA:770,1
DA:771,1
DA:772,1
DA:775,1
DA:778,1
DA:779,1
DA:782,1
DA:783,1
DA:784,1
DA:787,1
DA:789,1
DA:790,1
DA:793,1
DA:794,1
DA:795,1
DA:798,1
DA:800,1
DA:801,1
DA:804,1
DA:805,1
DA:806,1
DA:809,1
DA:811,1
DA:812,1
DA:815,1
DA:816,1
DA:817,1
DA:820,1
DA:821,1
DA:824,1
DA:825,1
DA:826,1
DA:829,1
DA:830,1
DA:833,1
DA:834,1
DA:835,1
DA:838,1
DA:839,1
DA:842,1
DA:843,1
DA:844,1
DA:847,1
DA:848,1
DA:851,1
DA:852,1
DA:853,1
DA:856,1
DA:857,1
DA:860,1
DA:861,1
DA:862,1
DA:863,1
DA:864,1
DA:867,1
DA:868,1
DA:869,1
DA:870,1
DA:871,1
DA:874,1
DA:875,1
DA:876,1
DA:877,1
DA:878,1
DA:881,1
DA:883,1
DA:884,1
DA:885,1
DA:888,1
DA:890,1
DA:891,1
DA:895,1
DA:896,1
DA:897,1
DA:898,1
DA:901,1
DA:903,1
DA:904,1
DA:909,1
DA:910,1
DA:911,1
DA:915,1
DA:916,1
BRF:0
BRH:0
LF:476
LH:474
end_of_record
SF:/Volumes/Files_1/iron-beam/rust-conversion/rust/entities/entities_data_handling/src/map.rs
FN:181,_RNvMNtCscP3qNAM1zpZ_22entities_data_handling3mapNtB2_3Map10find_index
FN:79,_RNvMNtCscP3qNAM1zpZ_22entities_data_handling3mapNtB2_3Map3get
FN:57,_RNvMNtCscP3qNAM1zpZ_22entities_data_handling3mapNtB2_3Map3new
FN:95,_RNvMNtCscP3qNAM1zpZ_22entities_data_handling3mapNtB2_3Map3put
FN:84,_RNvMNtCscP3qNAM1zpZ_22entities_data_handling3mapNtB2_3Map4find
FN:140,_RNvMNtCscP3qNAM1zpZ_22entities_data_handling3mapNtB2_3Map4keys
FN:64,_RNvMNtCscP3qNAM1zpZ_22entities_data_handling3mapNtB2_3Map4size
FN:131,_RNvMNtCscP3qNAM1zpZ_22entities_data_handling3mapNtB2_3Map4take
FN:169,_RNvMNtCscP3qNAM1zpZ_22entities_data_handling3mapNtB2_3Map5merge
FN:74,_RNvMNtCscP3qNAM1zpZ_22entities_data_handling3mapNtB2_3Map6is_key
FN:120,_RNvMNtCscP3qNAM1zpZ_22entities_data_handling3mapNtB2_3Map6remove
FN:108,_RNvMNtCscP3qNAM1zpZ_22entities_data_handling3mapNtB2_3Map6update
FN:145,_RNvMNtCscP3qNAM1zpZ_22entities_data_handling3mapNtB2_3Map6values
FN:150,_RNvMNtCscP3qNAM1zpZ_22entities_data_handling3mapNtB2_3Map7to_list
FN:69,_RNvMNtCscP3qNAM1zpZ_22entities_data_handling3mapNtB2_3Map8is_empty
FN:157,_RNvMNtCscP3qNAM1zpZ_22entities_data_handling3mapNtB2_3Map9from_list
FN:192,_RNvXs_NtCscP3qNAM1zpZ_22entities_data_handling3mapNtB4_3MapNtNtCsksJIhyblnkX_4core7default7Default7default
FN:80,_RNCNvMNtCscP3qNAM1zpZ_22entities_data_handling3mapNtB4_3Map3get0B6_
FN:85,_RNCNvMNtCscP3qNAM1zpZ_22entities_data_handling3mapNtB4_3Map4find0B6_
FN:282,_RNvNtNtCscP3qNAM1zpZ_22entities_data_handling3map5testss_13test_map_find
FN:266,_RNvNtNtCscP3qNAM1zpZ_22entities_data_handling3map5testss_13test_map_take
FN:374,_RNvNtNtCscP3qNAM1zpZ_22entities_data_handling3map5testss_14test_map_merge
FN:230,_RNvNtNtCscP3qNAM1zpZ_22entities_data_handling3map5testss_15test_map_remove
FN:248,_RNvNtNtCscP3qNAM1zpZ_22entities_data_handling3map5testss_15test_map_update
FN:451,_RNvNtNtCscP3qNAM1zpZ_22entities_data_handling3map5testss_16test_map_default
FN:322,_RNvNtNtCscP3qNAM1zpZ_22entities_data_handling3map5testss_16test_map_to_list
FN:203,_RNvNtNtCscP3qNAM1zpZ_22entities_data_handling3map5testss_17test_map_creation
FN:400,_RNvNtNtCscP3qNAM1zpZ_22entities_data_handling3map5testss_18test_map_atom_keys
FN:339,_RNvNtNtCscP3qNAM1zpZ_22entities_data_handling3map5testss_18test_map_from_list
FN:411,_RNvNtNtCscP3qNAM1zpZ_22entities_data_handling3map5testss_19test_map_tuple_keys
FN:210,_RNvNtNtCscP3qNAM1zpZ_22entities_data_handling3map5testss_20test_map_put_and_get
FN:300,_RNvNtNtCscP3qNAM1zpZ_22entities_data_handling3map5testss_24test_map_keys_and_values
FN:422,_RNvNtNtCscP3qNAM1zpZ_22entities_data_handling3map5testss_28test_map_multiple_operations
FN:357,_RNvNtNtCscP3qNAM1zpZ_22entities_data_handling3map5testss_29test_map_from_list_duplicates
FN:181,_RNvMNtCsiKXMdk2HZ3W_22entities_data_handling3mapNtB2_3Map10find_index
FN:79,_RNvMNtCsiKXMdk2HZ3W_22entities_data_handling3mapNtB2_3Map3get
FN:57,_RNvMNtCsiKXMdk2HZ3W_22entities_data_handling3mapNtB2_3Map3new
FN:95,_RNvMNtCsiKXMdk2HZ3W_22entities_data_handling3mapNtB2_3Map3put
FN:84,_RNvMNtCsiKXMdk2HZ3W_22entities_data_handling3mapNtB2_3Map4find
FN:140,_RNvMNtCsiKXMdk2HZ3W_22entities_data_handling3mapNtB2_3Map4keys
FN:64,_RNvMNtCsiKXMdk2HZ3W_22entities_data_handling3mapNtB2_3Map4size
FN:131,_RNvMNtCsiKXMdk2HZ3W_22entities_data_handling3mapNtB2_3Map4take
FN:169,_RNvMNtCsiKXMdk2HZ3W_22entities_data_handling3mapNtB2_3Map5merge
FN:74,_RNvMNtCsiKXMdk2HZ3W_22entities_data_handling3mapNtB2_3Map6is_key
FN:120,_RNvMNtCsiKXMdk2HZ3W_22entities_data_handling3mapNtB2_3Map6remove
FN:108,_RNvMNtCsiKXMdk2HZ3W_22entities_data_handling3mapNtB2_3Map6update
FN:145,_RNvMNtCsiKXMdk2HZ3W_22entities_data_handling3mapNtB2_3Map6values
FN:150,_RNvMNtCsiKXMdk2HZ3W_22entities_data_handling3mapNtB2_3Map7to_list
FN:69,_RNvMNtCsiKXMdk2HZ3W_22entities_data_handling3mapNtB2_3Map8is_empty
FN:157,_RNvMNtCsiKXMdk2HZ3W_22entities_data_handling3mapNtB2_3Map9from_list
FN:192,_RNvXs_NtCsiKXMdk2HZ3W_22entities_data_handling3mapNtB4_3MapNtNtCsksJIhyblnkX_4core7default7Default7default
FN:80,_RNCNvMNtCsiKXMdk2HZ3W_22entities_data_handling3mapNtB4_3Map3get0B6_
FN:85,_RNCNvMNtCsiKXMdk2HZ3W_22entities_data_handling3mapNtB4_3Map4find0B6_
FNDA:70,_RNvMNtCscP3qNAM1zpZ_22entities_data_handling3mapNtB2_3Map10find_index
FNDA:16,_RNvMNtCscP3qNAM1zpZ_22entities_data_handling3mapNtB2_3Map3get
FNDA:16,_RNvMNtCscP3qNAM1zpZ_22entities_data_handling3mapNtB2_3Map3new
FNDA:32,_RNvMNtCscP3qNAM1zpZ_22entities_data_handling3mapNtB2_3Map3put
FNDA:2,_RNvMNtCscP3qNAM1zpZ_22entities_data_handling3mapNtB2_3Map4find
FNDA:1,_RNvMNtCscP3qNAM1zpZ_22entities_data_handling3mapNtB2_3Map4keys
FNDA:11,_RNvMNtCscP3qNAM1zpZ_22entities_data_handling3mapNtB2_3Map4size
FNDA:2,_RNvMNtCscP3qNAM1zpZ_22entities_data_handling3mapNtB2_3Map4take
FNDA:1,_RNvMNtCscP3qNAM1zpZ_22entities_data_handling3mapNtB2_3Map5merge
FNDA:9,_RNvMNtCscP3qNAM1zpZ_22entities_data_handling3mapNtB2_3Map6is_key
FNDA:7,_RNvMNtCscP3qNAM1zpZ_22entities_data_handling3mapNtB2_3Map6remove
FNDA:2,_RNvMNtCscP3qNAM1zpZ_22entities_data_handling3mapNtB2_3Map6update
FNDA:1,_RNvMNtCscP3qNAM1zpZ_22entities_data_handling3mapNtB2_3Map6values
FNDA:1,_RNvMNtCscP3qNAM1zpZ_22entities_data_handling3mapNtB2_3Map7to_list
FNDA:2,_RNvMNtCscP3qNAM1zpZ_22entities_data_handling3mapNtB2_3Map8is_empty
FNDA:2,_RNvMNtCscP3qNAM1zpZ_22entities_data_handling3mapNtB2_3Map9from_list
FNDA:1,_RNvXs_NtCscP3qNAM1zpZ_22entities_data_handling3mapNtB4_3MapNtNtCsksJIhyblnkX_4core7default7Default7default
FNDA:16,_RNCNvMNtCscP3qNAM1zpZ_22entities_data_handling3mapNtB4_3Map3get0B6_
FNDA:1,_RNCNvMNtCscP3qNAM1zpZ_22entities_data_handling3mapNtB4_3Map4find0B6_
FNDA:1,_RNvNtNtCscP3qNAM1zpZ_22entities_data_handling3map5testss_13test_map_find
FNDA:1,_RNvNtNtCscP3qNAM1zpZ_22entities_data_handling3map5testss_13test_map_take
FNDA:1,_RNvNtNtCscP3qNAM1zpZ_22entities_data_handling3map5testss_14test_map_merge
FNDA:1,_RNvNtNtCscP3qNAM1zpZ_22entities_data_handling3map5testss_15test_map_remove
FNDA:1,_RNvNtNtCscP3qNAM1zpZ_22entities_data_handling3map5testss_15test_map_update
FNDA:1,_RNvNtNtCscP3qNAM1zpZ_22entities_data_handling3map5testss_16test_map_default
FNDA:1,_RNvNtNtCscP3qNAM1zpZ_22entities_data_handling3map5testss_16test_map_to_list
FNDA:1,_RNvNtNtCscP3qNAM1zpZ_22entities_data_handling3map5testss_17test_map_creation
FNDA:1,_RNvNtNtCscP3qNAM1zpZ_22entities_data_handling3map5testss_18test_map_atom_keys
FNDA:1,_RNvNtNtCscP3qNAM1zpZ_22entities_data_handling3map5testss_18test_map_from_list
FNDA:1,_RNvNtNtCscP3qNAM1zpZ_22entities_data_handling3map5testss_19test_map_tuple_keys
FNDA:1,_RNvNtNtCscP3qNAM1zpZ_22entities_data_handling3map5testss_20test_map_put_and_get
FNDA:1,_RNvNtNtCscP3qNAM1zpZ_22entities_data_handling3map5testss_24test_map_keys_and_values
FNDA:1,_RNvNtNtCscP3qNAM1zpZ_22entities_data_handling3map5testss_28test_map_multiple_operations
FNDA:1,_RNvNtNtCscP3qNAM1zpZ_22entities_data_handling3map5testss_29test_map_from_list_duplicates
FNDA:16,_RNvMNtCsiKXMdk2HZ3W_22entities_data_handling3mapNtB2_3Map10find_index
FNDA:6,_RNvMNtCsiKXMdk2HZ3W_22entities_data_handling3mapNtB2_3Map3get
FNDA:3,_RNvMNtCsiKXMdk2HZ3W_22entities_data_handling3mapNtB2_3Map3new
FNDA:8,_RNvMNtCsiKXMdk2HZ3W_22entities_data_handling3mapNtB2_3Map3put
FNDA:0,_RNvMNtCsiKXMdk2HZ3W_22entities_data_handling3mapNtB2_3Map4find
FNDA:0,_RNvMNtCsiKXMdk2HZ3W_22entities_data_handling3mapNtB2_3Map4keys
FNDA:2,_RNvMNtCsiKXMdk2HZ3W_22entities_data_handling3mapNtB2_3Map4size
FNDA:0,_RNvMNtCsiKXMdk2HZ3W_22entities_data_handling3mapNtB2_3Map4take
FNDA:0,_RNvMNtCsiKXMdk2HZ3W_22entities_data_handling3mapNtB2_3Map5merge
FNDA:2,_RNvMNtCsiKXMdk2HZ3W_22entities_data_handling3mapNtB2_3Map6is_key
FNDA:0,_RNvMNtCsiKXMdk2HZ3W_22entities_data_handling3mapNtB2_3Map6remove
FNDA:0,_RNvMNtCsiKXMdk2HZ3W_22entities_data_handling3mapNtB2_3Map6update
FNDA:0,_RNvMNtCsiKXMdk2HZ3W_22entities_data_handling3mapNtB2_3Map6values
FNDA:3,_RNvMNtCsiKXMdk2HZ3W_22entities_data_handling3mapNtB2_3Map7to_list
FNDA:0,_RNvMNtCsiKXMdk2HZ3W_22entities_data_handling3mapNtB2_3Map8is_empty
FNDA:0,_RNvMNtCsiKXMdk2HZ3W_22entities_data_handling3mapNtB2_3Map9from_list
FNDA:0,_RNvXs_NtCsiKXMdk2HZ3W_22entities_data_handling3mapNtB4_3MapNtNtCsksJIhyblnkX_4core7default7Default7default
FNDA:6,_RNCNvMNtCsiKXMdk2HZ3W_22entities_data_handling3mapNtB4_3Map3get0B6_
FNDA:0,_RNCNvMNtCsiKXMdk2HZ3W_22entities_data_handling3mapNtB4_3Map4find0B6_
FNF:34
FNH:34
DA:57,19
DA:58,19
DA:59,19
DA:60,19
DA:61,19
DA:64,13
DA:65,13
DA:66,13
DA:69,2
DA:70,2
DA:71,2
DA:74,11
DA:75,11
DA:76,11
DA:79,22
DA:80,22
DA:81,22
DA:84,2
DA:85,2
DA:86,1
DA:87,1
DA:88,1
DA:89,2
DA:95,40
DA:96,40
DA:97,3
DA:98,3
DA:100,37
DA:101,37
DA:103,40
DA:108,2
DA:109,2
DA:110,1
DA:111,1
DA:113,1
DA:115,2
DA:120,7
DA:121,7
DA:122,6
DA:124,1
DA:126,7
DA:131,2
DA:132,2
DA:133,1
DA:135,1
DA:137,2
DA:140,1
DA:141,1
DA:142,1
DA:145,1
DA:146,1
DA:147,1
DA:150,4
DA:151,4
DA:152,4
DA:157,2
DA:158,2
DA:159,6
DA:160,4
DA:161,4
DA:162,2
DA:163,2
DA:169,1
DA:170,1
DA:171,3
DA:172,2
DA:173,2
DA:174,1
DA:175,1
DA:181,86
DA:182,137
DA:183,137
DA:184,44
DA:185,93
DA:187,42
DA:188,86
DA:192,1
DA:193,1
DA:194,1
DA:203,1
DA:204,1
DA:205,1
DA:206,1
DA:207,1
DA:210,1
DA:211,1
DA:212,1
DA:213,1
DA:216,1
DA:217,1
DA:218,1
DA:221,1
DA:224,1
DA:225,1
DA:226,1
DA:227,1
DA:230,1
DA:231,1
DA:232,1
DA:233,1
DA:235,1
DA:236,1
DA:239,1
DA:240,1
DA:241,1
DA:244,1
DA:245,1
DA:248,1
DA:249,1
DA:250,1
DA:251,1
DA:252,1
DA:255,1
DA:258,1
DA:261,1
DA:262,1
DA:263,1
DA:266,1
DA:267,1
DA:268,1
DA:269,1
DA:271,1
DA:274,1
DA:275,1
DA:278,1
DA:279,1
DA:282,1
DA:283,1
DA:284,1
DA:285,1
DA:288,1
DA:291,1
DA:292,1
DA:293,1
DA:294,1
DA:295,1
DA:296,1
DA:297,1
DA:300,1
DA:301,1
DA:302,1
DA:303,1
DA:304,1
DA:305,1
DA:307,1
DA:308,1
DA:310,1
DA:311,1
DA:312,1
DA:313,1
DA:315,1
DA:316,1
DA:317,1
DA:318,1
DA:319,1
DA:322,1
DA:323,1
DA:324,1
DA:325,1
DA:326,1
DA:327,1
DA:329,1
DA:330,1
DA:332,1
DA:333,1
DA:334,1
DA:335,1
DA:336,1
DA:339,1
DA:340,1
DA:341,1
DA:342,1
DA:343,1
DA:345,1
DA:346,1
DA:347,1
DA:350,1
DA:351,1
DA:352,1
DA:353,1
DA:354,1
DA:357,1
DA:358,1
DA:359,1
DA:360,1
DA:363,1
DA:364,1
DA:365,1
DA:368,1
DA:369,1
DA:370,1
DA:371,1
DA:374,1
DA:375,1
DA:376,1
DA:377,1
DA:378,1
DA:379,1
DA:381,1
DA:382,1
DA:384,1
DA:385,1
DA:386,1
DA:387,1
DA:389,1
DA:390,1
DA:392,1
DA:393,1
DA:394,1
DA:395,1
DA:396,1
DA:397,1
DA:400,1
DA:401,1
DA:402,1
DA:403,1
DA:405,1
DA:406,1
DA:407,1
DA:408,1
DA:411,1
DA:412,1
DA:413,1
DA:414,1
DA:416,1
DA:417,1
DA:418,1
DA:419,1
DA:422,1
DA:423,1
DA:426,11
DA:427,10
DA:428,10
DA:429,10
DA:430,10
DA:432,1
DA:435,6
DA:436,5
DA:437,5
DA:438,5
DA:440,1
DA:443,6
DA:444,5
DA:445,5
DA:446,5
DA:448,1
DA:451,1
DA:452,1
DA:453,1
DA:454,1
DA:455,1
BRF:0
BRH:0
LF:253
LH:253
end_of_record
SF:/Volumes/Files_1/iron-beam/rust-conversion/rust/entities/entities_data_handling/src/term_hashing.rs
FN:568,_RNvNtCscP3qNAM1zpZ_22entities_data_handling12term_hashing10make_hash2
FN:886,_RNvNtCscP3qNAM1zpZ_22entities_data_handling12term_hashing10mix_hash_2
FN:938,_RNvNtCscP3qNAM1zpZ_22entities_data_handling12term_hashing11ihash_mix64
FN:993,_RNvNtCscP3qNAM1zpZ_22entities_data_handling12term_hashing12is_immediate
FN:172,_RNvNtCscP3qNAM1zpZ_22entities_data_handling12term_hashing13atom_hash_pjw
FN:1612,_RNvNtCscP3qNAM1zpZ_22entities_data_handling12term_hashing13erts_map_hash
FN:987,_RNvNtCscP3qNAM1zpZ_22entities_data_handling12term_hashing13mix_beta_2f32
FN:966,_RNvNtCscP3qNAM1zpZ_22entities_data_handling12term_hashing14mix_alpha_2f32
FN:92,_RNvNtCscP3qNAM1zpZ_22entities_data_handling12term_hashing17hash_binary_bytes
FN:40,_RNvNtCscP3qNAM1zpZ_22entities_data_handling12term_hashing17hash_u32_bytewise
FN:1517,_RNvNtCscP3qNAM1zpZ_22entities_data_handling12term_hashing18erts_internal_hash
FN:55,_RNvNtCscP3qNAM1zpZ_22entities_data_handling12term_hashing20hash_number_bytewise
FN:1015,_RNvNtCscP3qNAM1zpZ_22entities_data_handling12term_hashing23make_internal_hash_impl
FN:1542,_RNvNtCscP3qNAM1zpZ_22entities_data_handling12term_hashing25erts_internal_salted_hash
FN:1571,_RNvNtCscP3qNAM1zpZ_22entities_data_handling12term_hashing34erts_dbg_hashmap_collision_bonanza
FN:848,_RNvNtCscP3qNAM1zpZ_22entities_data_handling12term_hashing3mix
FN:931,_RNvNtCscP3qNAM1zpZ_22entities_data_handling12term_hashing6rotl64
FN:973,_RNvNtCscP3qNAM1zpZ_22entities_data_handling12term_hashing8mix_beta
FN:878,_RNvNtCscP3qNAM1zpZ_22entities_data_handling12term_hashing8mix_hash
FN:1004,_RNvNtCscP3qNAM1zpZ_22entities_data_handling12term_hashing8read_u64
FN:228,_RNvNtCscP3qNAM1zpZ_22entities_data_handling12term_hashing9make_hash
FN:952,_RNvNtCscP3qNAM1zpZ_22entities_data_handling12term_hashing9mix_alpha
FN:1921,_RNvNtNtCscP3qNAM1zpZ_22entities_data_handling12term_hashing5testss_18test_atom_hash_pjw
FN:3605,_RNvNtNtCscP3qNAM1zpZ_22entities_data_handling12term_hashing5testss_18test_erts_map_hash
FN:2454,_RNvNtNtCscP3qNAM1zpZ_22entities_data_handling12term_hashing5testss_18test_make_hash_big
FN:1728,_RNvNtNtCscP3qNAM1zpZ_22entities_data_handling12term_hashing5testss_18test_make_hash_nil
FN:2476,_RNvNtNtCscP3qNAM1zpZ_22entities_data_handling12term_hashing5testss_18test_make_hash_ref
FN:2403,_RNvNtNtCscP3qNAM1zpZ_22entities_data_handling12term_hashing5testss_19test_make_hash2_map
FN:1763,_RNvNtNtCscP3qNAM1zpZ_22entities_data_handling12term_hashing5testss_19test_make_hash_atom
FN:1865,_RNvNtNtCscP3qNAM1zpZ_22entities_data_handling12term_hashing5testss_19test_make_hash_list
FN:1990,_RNvNtNtCscP3qNAM1zpZ_22entities_data_handling12term_hashing5testss_19test_make_hash_port
FN:2033,_RNvNtNtCscP3qNAM1zpZ_22entities_data_handling12term_hashing5testss_20test_make_hash2_port
FN:1887,_RNvNtNtCscP3qNAM1zpZ_22entities_data_handling12term_hashing5testss_20test_make_hash_float
FN:1847,_RNvNtNtCscP3qNAM1zpZ_22entities_data_handling12term_hashing5testss_20test_make_hash_tuple
FN:1777,_RNvNtNtCscP3qNAM1zpZ_22entities_data_handling12term_hashing5testss_21test_make_hash_binary
FN:2191,_RNvNtNtCscP3qNAM1zpZ_22entities_data_handling12term_hashing5testss_22test_internal_hash_big
FN:2339,_RNvNtNtCscP3qNAM1zpZ_22entities_data_handling12term_hashing5testss_22test_internal_hash_fun
FN:2165,_RNvNtNtCscP3qNAM1zpZ_22entities_data_handling12term_hashing5testss_22test_internal_hash_map
FN:2301,_RNvNtNtCscP3qNAM1zpZ_22entities_data_handling12term_hashing5testss_22test_internal_hash_ref
FN:2077,_RNvNtNtCscP3qNAM1zpZ_22entities_data_handling12term_hashing5testss_23test_internal_hash_list
FN:1947,_RNvNtNtCscP3qNAM1zpZ_22entities_data_handling12term_hashing5testss_23test_make_hash_function
FN:2281,_RNvNtNtCscP3qNAM1zpZ_22entities_data_handling12term_hashing5testss_24test_internal_hash_float
FN:2133,_RNvNtNtCscP3qNAM1zpZ_22entities_data_handling12term_hashing5testss_24test_internal_hash_tuple
FN:2538,_RNvNtNtCscP3qNAM1zpZ_22entities_data_handling12term_hashing5testss_24test_make_hash_long_list
FN:2229,_RNvNtNtCscP3qNAM1zpZ_22entities_data_handling12term_hashing5testss_25test_internal_hash_binary
FN:2393,_RNvNtNtCscP3qNAM1zpZ_22entities_data_handling12term_hashing5testss_25test_internal_hash_salted
FN:2420,_RNvNtNtCscP3qNAM1zpZ_22entities_data_handling12term_hashing5testss_25test_make_hash2_all_types
FN:2884,_RNvNtNtCscP3qNAM1zpZ_22entities_data_handling12term_hashing5testss_25test_make_hash2_map_empty
FN:2526,_RNvNtNtCscP3qNAM1zpZ_22entities_data_handling12term_hashing5testss_26test_make_hash_large_tuple
FN:2876,_RNvNtNtCscP3qNAM1zpZ_22entities_data_handling12term_hashing5testss_27test_make_hash2_tuple_empty
FN:2057,_RNvNtNtCscP3qNAM1zpZ_22entities_data_handling12term_hashing5testss_28test_internal_hash_immediate
FN:1737,_RNvNtNtCscP3qNAM1zpZ_22entities_data_handling12term_hashing5testss_28test_make_hash_small_integer
FN:2864,_RNvNtNtCscP3qNAM1zpZ_22entities_data_handling12term_hashing5testss_30test_make_hash2_small_negative
FN:3032,_RNvNtNtCscP3qNAM1zpZ_22entities_data_handling12term_hashing5testss_31test_make_hash2_map_error_paths
FN:2892,_RNvNtNtCscP3qNAM1zpZ_22entities_data_handling12term_hashing5testss_31test_make_hash2_map_single_pair
FN:2488,_RNvNtNtCscP3qNAM1zpZ_22entities_data_handling12term_hashing5testss_31test_make_hash_empty_structures
FN:3465,_RNvNtNtCscP3qNAM1zpZ_22entities_data_handling12term_hashing5testss_32test_make_hash2_binary_all_cases
FN:2553,_RNvNtNtCscP3qNAM1zpZ_22entities_data_handling12term_hashing5testss_32test_make_hash_binary_edge_cases
FN:2502,_RNvNtNtCscP3qNAM1zpZ_22entities_data_handling12term_hashing5testss_32test_make_hash_nested_structures
FN:3446,_RNvNtNtCscP3qNAM1zpZ_22entities_data_handling12term_hashing5testss_33test_internal_hash_big_edge_cases
FN:3419,_RNvNtNtCscP3qNAM1zpZ_22entities_data_handling12term_hashing5testss_33test_internal_hash_fun_edge_cases
FN:2902,_RNvNtNtCscP3qNAM1zpZ_22entities_data_handling12term_hashing5testss_33test_internal_hash_map_edge_cases
FN:3366,_RNvNtNtCscP3qNAM1zpZ_22entities_data_handling12term_hashing5testss_33test_internal_hash_ref_edge_cases
FN:3502,_RNvNtNtCscP3qNAM1zpZ_22entities_data_handling12term_hashing5testss_33test_make_hash2_map_comprehensive
FN:3556,_RNvNtNtCscP3qNAM1zpZ_22entities_data_handling12term_hashing5testss_34test_make_hash2_list_comprehensive
FN:3265,_RNvNtNtCscP3qNAM1zpZ_22entities_data_handling12term_hashing5testss_35test_internal_hash_binary_tail_bits
FN:3108,_RNvNtNtCscP3qNAM1zpZ_22entities_data_handling12term_hashing5testss_35test_internal_hash_salted_all_types
FN:2920,_RNvNtNtCscP3qNAM1zpZ_22entities_data_handling12term_hashing5testss_35test_internal_hash_tuple_edge_cases
FN:3543,_RNvNtNtCscP3qNAM1zpZ_22entities_data_handling12term_hashing5testss_35test_make_hash2_tuple_comprehensive
FN:3299,_RNvNtNtCscP3qNAM1zpZ_22entities_data_handling12term_hashing5testss_36test_internal_hash_binary_edge_cases
FN:2779,_RNvNtNtCscP3qNAM1zpZ_22entities_data_handling12term_hashing5testss_37test_internal_hash_list_general_paths
FN:3320,_RNvNtNtCscP3qNAM1zpZ_22entities_data_handling12term_hashing5testss_37test_internal_hash_list_non_byte_head
FN:3078,_RNvNtNtCscP3qNAM1zpZ_22entities_data_handling12term_hashing5testss_38test_internal_hash_all_immediate_types
FN:3573,_RNvNtNtCscP3qNAM1zpZ_22entities_data_handling12term_hashing5testss_39test_erts_dbg_hashmap_collision_bonanza
FN:2960,_RNvNtNtCscP3qNAM1zpZ_22entities_data_handling12term_hashing5testss_39test_internal_hash_big_all_digit_counts
FN:2820,_RNvNtNtCscP3qNAM1zpZ_22entities_data_handling12term_hashing5testss_42test_internal_hash_binary_all_switch_cases
FN:2611,_RNvNtNtCscP3qNAM1zpZ_22entities_data_handling12term_hashing5testss_43test_internal_hash_list_string_optimization
FN:3135,_RNvNtNtCscP3qNAM1zpZ_22entities_data_handling12term_hashing5testss_43test_make_hash_all_term_types_comprehensive
FN:3201,_RNvNtNtCscP3qNAM1zpZ_22entities_data_handling12term_hashing5testss_44test_make_hash2_all_term_types_comprehensive
FN:3054,_RNvNtNtCscP3qNAM1zpZ_22entities_data_handling12term_hashing5testss_45test_erts_dbg_hashmap_collision_bonanza_32bit
FN:2569,_RNvNtNtCscP3qNAM1zpZ_22entities_data_handling12term_hashing5testss_45test_internal_hash_binary_all_remaining_bytes
FN:2933,_RNvNtNtCscP3qNAM1zpZ_22entities_data_handling12term_hashing5testss_45test_internal_hash_fun_environment_edge_cases
FN:3000,_RNvNtNtCscP3qNAM1zpZ_22entities_data_handling12term_hashing5testss_47test_internal_hash_binary_bit_aligned_all_cases
FN:3249,_RNvNtNtCscP3qNAM1zpZ_22entities_data_handling12term_hashing5testss_48test_make_hash2_binary_bit_aligned_comprehensive
FN:568,_RNvNtCsiKXMdk2HZ3W_22entities_data_handling12term_hashing10make_hash2
FN:886,_RNvNtCsiKXMdk2HZ3W_22entities_data_handling12term_hashing10mix_hash_2
FN:938,_RNvNtCsiKXMdk2HZ3W_22entities_data_handling12term_hashing11ihash_mix64
FN:993,_RNvNtCsiKXMdk2HZ3W_22entities_data_handling12term_hashing12is_immediate
FN:1612,_RNvNtCsiKXMdk2HZ3W_22entities_data_handling12term_hashing13erts_map_hash
FN:987,_RNvNtCsiKXMdk2HZ3W_22entities_data_handling12term_hashing13mix_beta_2f32
FN:966,_RNvNtCsiKXMdk2HZ3W_22entities_data_handling12term_hashing14mix_alpha_2f32
FN:92,_RNvNtCsiKXMdk2HZ3W_22entities_data_handling12term_hashing17hash_binary_bytes
FN:40,_RNvNtCsiKXMdk2HZ3W_22entities_data_handling12term_hashing17hash_u32_bytewise
FN:1517,_RNvNtCsiKXMdk2HZ3W_22entities_data_handling12term_hashing18erts_internal_hash
FN:55,_RNvNtCsiKXMdk2HZ3W_22entities_data_handling12term_hashing20hash_number_bytewise
FN:1015,_RNvNtCsiKXMdk2HZ3W_22entities_data_handling12term_hashing23make_internal_hash_impl
FN:1542,_RNvNtCsiKXMdk2HZ3W_22entities_data_handling12term_hashing25erts_internal_salted_hash
FN:1571,_RNvNtCsiKXMdk2HZ3W_22entities_data_handling12term_hashing34erts_dbg_hashmap_collision_bonanza
FN:848,_RNvNtCsiKXMdk2HZ3W_22entities_data_handling12term_hashing3mix
FN:931,_RNvNtCsiKXMdk2HZ3W_22entities_data_handling12term_hashing6rotl64
FN:973,_RNvNtCsiKXMdk2HZ3W_22entities_data_handling12term_hashing8mix_beta
FN:878,_RNvNtCsiKXMdk2HZ3W_22entities_data_handling12term_hashing8mix_hash
FN:1004,_RNvNtCsiKXMdk2HZ3W_22entities_data_handling12term_hashing8read_u64
FN:228,_RNvNtCsiKXMdk2HZ3W_22entities_data_handling12term_hashing9make_hash
FN:952,_RNvNtCsiKXMdk2HZ3W_22entities_data_handling12term_hashing9mix_alpha
FNDA:357,_RNvNtCscP3qNAM1zpZ_22entities_data_handling12term_hashing10make_hash2
FNDA:17,_RNvNtCscP3qNAM1zpZ_22entities_data_handling12term_hashing10mix_hash_2
FNDA:2245,_RNvNtCscP3qNAM1zpZ_22entities_data_handling12term_hashing11ihash_mix64
FNDA:2309,_RNvNtCscP3qNAM1zpZ_22entities_data_handling12term_hashing12is_immediate
FNDA:5,_RNvNtCscP3qNAM1zpZ_22entities_data_handling12term_hashing13atom_hash_pjw
FNDA:2,_RNvNtCscP3qNAM1zpZ_22entities_data_handling12term_hashing13erts_map_hash
FNDA:15,_RNvNtCscP3qNAM1zpZ_22entities_data_handling12term_hashing13mix_beta_2f32
FNDA:49,_RNvNtCscP3qNAM1zpZ_22entities_data_handling12term_hashing14mix_alpha_2f32
FNDA:136,_RNvNtCscP3qNAM1zpZ_22entities_data_handling12term_hashing17hash_binary_bytes
FNDA:82,_RNvNtCscP3qNAM1zpZ_22entities_data_handling12term_hashing17hash_u32_bytewise
FNDA:1378,_RNvNtCscP3qNAM1zpZ_22entities_data_handling12term_hashing18erts_internal_hash
FNDA:53,_RNvNtCscP3qNAM1zpZ_22entities_data_handling12term_hashing20hash_number_bytewise
FNDA:859,_RNvNtCscP3qNAM1zpZ_22entities_data_handling12term_hashing23make_internal_hash_impl
FNDA:8,_RNvNtCscP3qNAM1zpZ_22entities_data_handling12term_hashing25erts_internal_salted_hash
FNDA:108,_RNvNtCscP3qNAM1zpZ_22entities_data_handling12term_hashing34erts_dbg_hashmap_collision_bonanza
FNDA:2390,_RNvNtCscP3qNAM1zpZ_22entities_data_handling12term_hashing3mix
FNDA:5974,_RNvNtCscP3qNAM1zpZ_22entities_data_handling12term_hashing6rotl64
FNDA:974,_RNvNtCscP3qNAM1zpZ_22entities_data_handling12term_hashing8mix_beta
FNDA:2373,_RNvNtCscP3qNAM1zpZ_22entities_data_handling12term_hashing8mix_hash
FNDA:144,_RNvNtCscP3qNAM1zpZ_22entities_data_handling12term_hashing8read_u64
FNDA:228,_RNvNtCscP3qNAM1zpZ_22entities_data_handling12term_hashing9make_hash
FNDA:1646,_RNvNtCscP3qNAM1zpZ_22entities_data_handling12term_hashing9mix_alpha
FNDA:1,_RNvNtNtCscP3qNAM1zpZ_22entities_data_handling12term_hashing5testss_18test_atom_hash_pjw
FNDA:1,_RNvNtNtCscP3qNAM1zpZ_22entities_data_handling12term_hashing5testss_18test_erts_map_hash
FNDA:1,_RNvNtNtCscP3qNAM1zpZ_22entities_data_handling12term_hashing5testss_18test_make_hash_big
FNDA:1,_RNvNtNtCscP3qNAM1zpZ_22entities_data_handling12term_hashing5testss_18test_make_hash_nil
FNDA:1,_RNvNtNtCscP3qNAM1zpZ_22entities_data_handling12term_hashing5testss_18test_make_hash_ref
FNDA:1,_RNvNtNtCscP3qNAM1zpZ_22entities_data_handling12term_hashing5testss_19test_make_hash2_map
FNDA:1,_RNvNtNtCscP3qNAM1zpZ_22entities_data_handling12term_hashing5testss_19test_make_hash_atom
FNDA:1,_RNvNtNtCscP3qNAM1zpZ_22entities_data_handling12term_hashing5testss_19test_make_hash_list
FNDA:1,_RNvNtNtCscP3qNAM1zpZ_22entities_data_handling12term_hashing5testss_19test_make_hash_port
FNDA:1,_RNvNtNtCscP3qNAM1zpZ_22entities_data_handling12term_hashing5testss_20test_make_hash2_port
FNDA:1,_RNvNtNtCscP3qNAM1zpZ_22entities_data_handling12term_hashing5testss_20test_make_hash_float
FNDA:1,_RNvNtNtCscP3qNAM1zpZ_22entities_data_handling12term_hashing5testss_20test_make_hash_tuple
FNDA:1,_RNvNtNtCscP3qNAM1zpZ_22entities_data_handling12term_hashing5testss_21test_make_hash_binary
FNDA:1,_RNvNtNtCscP3qNAM1zpZ_22entities_data_handling12term_hashing5testss_22test_internal_hash_big
FNDA:1,_RNvNtNtCscP3qNAM1zpZ_22entities_data_handling12term_hashing5testss_22test_internal_hash_fun
FNDA:1,_RNvNtNtCscP3qNAM1zpZ_22entities_data_handling12term_hashing5testss_22test_internal_hash_map
FNDA:1,_RNvNtNtCscP3qNAM1zpZ_22entities_data_handling12term_hashing5testss_22test_internal_hash_ref
FNDA:1,_RNvNtNtCscP3qNAM1zpZ_22entities_data_handling12term_hashing5testss_23test_internal_hash_list
FNDA:1,_RNvNtNtCscP3qNAM1zpZ_22entities_data_handling12term_hashing5testss_23test_make_hash_function
FNDA:1,_RNvNtNtCscP3qNAM1zpZ_22entities_data_handling12term_hashing5testss_24test_internal_hash_float
FNDA:1,_RNvNtNtCscP3qNAM1zpZ_22entities_data_handling12term_hashing5testss_24test_internal_hash_tuple
FNDA:1,_RNvNtNtCscP3qNAM1zpZ_22entities_data_handling12term_hashing5testss_24test_make_hash_long_list
FNDA:1,_RNvNtNtCscP3qNAM1zpZ_22entities_data_handling12term_hashing5testss_25test_internal_hash_binary
FNDA:1,_RNvNtNtCscP3qNAM1zpZ_22entities_data_handling12term_hashing5testss_25test_internal_hash_salted
FNDA:1,_RNvNtNtCscP3qNAM1zpZ_22entities_data_handling12term_hashing5testss_25test_make_hash2_all_types
FNDA:1,_RNvNtNtCscP3qNAM1zpZ_22entities_data_handling12term_hashing5testss_25test_make_hash2_map_empty
FNDA:1,_RNvNtNtCscP3qNAM1zpZ_22entities_data_handling12term_hashing5testss_26test_make_hash_large_tuple
FNDA:1,_RNvNtNtCscP3qNAM1zpZ_22entities_data_handling12term_hashing5testss_27test_make_hash2_tuple_empty
FNDA:1,_RNvNtNtCscP3qNAM1zpZ_22entities_data_handling12term_hashing5testss_28test_internal_hash_immediate
FNDA:1,_RNvNtNtCscP3qNAM1zpZ_22entities_data_handling12term_hashing5testss_28test_make_hash_small_integer
FNDA:1,_RNvNtNtCscP3qNAM1zpZ_22entities_data_handling12term_hashing5testss_30test_make_hash2_small_negative
FNDA:1,_RNvNtNtCscP3qNAM1zpZ_22entities_data_handling12term_hashing5testss_31test_make_hash2_map_error_paths
FNDA:1,_RNvNtNtCscP3qNAM1zpZ_22entities_data_handling12term_hashing5testss_31test_make_hash2_map_single_pair
FNDA:1,_RNvNtNtCscP3qNAM1zpZ_22entities_data_handling12term_hashing5testss_31test_make_hash_empty_structures
FNDA:1,_RNvNtNtCscP3qNAM1zpZ_22entities_data_handling12term_hashing5testss_32test_make_hash2_binary_all_cases
FNDA:1,_RNvNtNtCscP3qNAM1zpZ_22entities_data_handling12term_hashing5testss_32test_make_hash_binary_edge_cases
FNDA:1,_RNvNtNtCscP3qNAM1zpZ_22entities_data_handling12term_hashing5testss_32test_make_hash_nested_structures
FNDA:1,_RNvNtNtCscP3qNAM1zpZ_22entities_data_handling12term_hashing5testss_33test_internal_hash_big_edge_cases
FNDA:1,_RNvNtNtCscP3qNAM1zpZ_22entities_data_handling12term_hashing5testss_33test_internal_hash_fun_edge_cases
FNDA:1,_RNvNtNtCscP3qNAM1zpZ_22entities_data_handling12term_hashing5testss_33test_internal_hash_map_edge_cases
FNDA:1,_RNvNtNtCscP3qNAM1zpZ_22entities_data_handling12term_hashing5testss_33test_internal_hash_ref_edge_cases
FNDA:1,_RNvNtNtCscP3qNAM1zpZ_22entities_data_handling12term_hashing5testss_33test_make_hash2_map_comprehensive
FNDA:1,_RNvNtNtCscP3qNAM1zpZ_22entities_data_handling12term_hashing5testss_34test_make_hash2_list_comprehensive
FNDA:1,_RNvNtNtCscP3qNAM1zpZ_22entities_data_handling12term_hashing5testss_35test_internal_hash_binary_tail_bits
FNDA:1,_RNvNtNtCscP3qNAM1zpZ_22entities_data_handling12term_hashing5testss_35test_internal_hash_salted_all_types
FNDA:1,_RNvNtNtCscP3qNAM1zpZ_22entities_data_handling12term_hashing5testss_35test_internal_hash_tuple_edge_cases
FNDA:1,_RNvNtNtCscP3qNAM1zpZ_22entities_data_handling12term_hashing5testss_35test_make_hash2_tuple_comprehensive
FNDA:1,_RNvNtNtCscP3qNAM1zpZ_22entities_data_handling12term_hashing5testss_36test_internal_hash_binary_edge_cases
FNDA:1,_RNvNtNtCscP3qNAM1zpZ_22entities_data_handling12term_hashing5testss_37test_internal_hash_list_general_paths
FNDA:1,_RNvNtNtCscP3qNAM1zpZ_22entities_data_handling12term_hashing5testss_37test_internal_hash_list_non_byte_head
FNDA:1,_RNvNtNtCscP3qNAM1zpZ_22entities_data_handling12term_hashing5testss_38test_internal_hash_all_immediate_types
FNDA:1,_RNvNtNtCscP3qNAM1zpZ_22entities_data_handling12term_hashing5testss_39test_erts_dbg_hashmap_collision_bonanza
FNDA:1,_RNvNtNtCscP3qNAM1zpZ_22entities_data_handling12term_hashing5testss_39test_internal_hash_big_all_digit_counts
FNDA:1,_RNvNtNtCscP3qNAM1zpZ_22entities_data_handling12term_hashing5testss_42test_internal_hash_binary_all_switch_cases
FNDA:1,_RNvNtNtCscP3qNAM1zpZ_22entities_data_handling12term_hashing5testss_43test_internal_hash_list_string_optimization
FNDA:1,_RNvNtNtCscP3qNAM1zpZ_22entities_data_handling12term_hashing5testss_43test_make_hash_all_term_types_comprehensive
FNDA:1,_RNvNtNtCscP3qNAM1zpZ_22entities_data_handling12term_hashing5testss_44test_make_hash2_all_term_types_comprehensive
FNDA:1,_RNvNtNtCscP3qNAM1zpZ_22entities_data_handling12term_hashing5testss_45test_erts_dbg_hashmap_collision_bonanza_32bit
FNDA:1,_RNvNtNtCscP3qNAM1zpZ_22entities_data_handling12term_hashing5testss_45test_internal_hash_binary_all_remaining_bytes
FNDA:1,_RNvNtNtCscP3qNAM1zpZ_22entities_data_handling12term_hashing5testss_45test_internal_hash_fun_environment_edge_cases
FNDA:1,_RNvNtNtCscP3qNAM1zpZ_22entities_data_handling12term_hashing5testss_47test_internal_hash_binary_bit_aligned_all_cases
FNDA:1,_RNvNtNtCscP3qNAM1zpZ_22entities_data_handling12term_hashing5testss_48test_make_hash2_binary_bit_aligned_comprehensive
FNDA:1,_RNvNtCsiKXMdk2HZ3W_22entities_data_handling12term_hashing10make_hash2
FNDA:0,_RNvNtCsiKXMdk2HZ3W_22entities_data_handling12term_hashing10mix_hash_2
FNDA:28,_RNvNtCsiKXMdk2HZ3W_22entities_data_handling12term_hashing11ihash_mix64
FNDA:63,_RNvNtCsiKXMdk2HZ3W_22entities_data_handling12term_hashing12is_immediate
FNDA:5,_RNvNtCsiKXMdk2HZ3W_22entities_data_handling12term_hashing13erts_map_hash
FNDA:0,_RNvNtCsiKXMdk2HZ3W_22entities_data_handling12term_hashing13mix_beta_2f32
FNDA:3,_RNvNtCsiKXMdk2HZ3W_22entities_data_handling12term_hashing14mix_alpha_2f32
FNDA:0,_RNvNtCsiKXMdk2HZ3W_22entities_data_handling12term_hashing17hash_binary_bytes
FNDA:1,_RNvNtCsiKXMdk2HZ3W_22entities_data_handling12term_hashing17hash_u32_bytewise
FNDA:18,_RNvNtCsiKXMdk2HZ3W_22entities_data_handling12term_hashing18erts_internal_hash
FNDA:1,_RNvNtCsiKXMdk2HZ3W_22entities_data_handling12term_hashing20hash_number_bytewise
FNDA:10,_RNvNtCsiKXMdk2HZ3W_22entities_data_handling12term_hashing23make_internal_hash_impl
FNDA:0,_RNvNtCsiKXMdk2HZ3W_22entities_data_handling12term_hashing25erts_internal_salted_hash
FNDA:5,_RNvNtCsiKXMdk2HZ3W_22entities_data_handling12term_hashing34erts_dbg_hashmap_collision_bonanza
FNDA:1,_RNvNtCsiKXMdk2HZ3W_22entities_data_handling12term_hashing3mix
FNDA:174,_RNvNtCsiKXMdk2HZ3W_22entities_data_handling12term_hashing6rotl64
FNDA:42,_RNvNtCsiKXMdk2HZ3W_22entities_data_handling12term_hashing8mix_beta
FNDA:1,_RNvNtCsiKXMdk2HZ3W_22entities_data_handling12term_hashing8mix_hash
FNDA:0,_RNvNtCsiKXMdk2HZ3W_22entities_data_handling12term_hashing8read_u64
FNDA:1,_RNvNtCsiKXMdk2HZ3W_22entities_data_handling12term_hashing9make_hash
FNDA:45,_RNvNtCsiKXMdk2HZ3W_22entities_data_handling12term_hashing9mix_alpha
FNF:84
FNH:84
DA:40,83
DA:44,83
DA:45,83
DA:46,83
DA:47,83
DA:48,83
DA:55,54
DA:56,54
DA:57,11
DA:59,43
DA:63,54
DA:67,54
DA:68,0
DA:69,54
DA:72,54
DA:73,11
DA:75,43
DA:77,54
DA:92,136
DA:94,136
DA:95,136
DA:96,136
DA:98,136
DA:100,136
DA:103,124
DA:104,124
DA:105,124
DA:106,124
DA:111,22
DA:112,15
DA:113,15
DA:114,15
DA:115,15
DA:116,15
DA:120,114
DA:121,114
DA:122,114
DA:126,114
DA:127,72
DA:128,72
DA:129,72
DA:130,72
DA:131,0
DA:132,0
DA:133,72
DA:134,72
DA:139,114
DA:140,100
DA:141,100
DA:142,99
DA:143,99
DA:144,1
DA:145,1
DA:146,100
DA:147,100
DA:148,100
DA:149,100
DA:150,14
DA:154,136
DA:155,136
DA:172,5
DA:173,5
DA:174,5
DA:176,21
DA:177,16
DA:178,16
DA:182,16
DA:183,0
DA:184,0
DA:185,16
DA:189,16
DA:192,16
DA:193,16
DA:194,0
DA:195,0
DA:196,16
DA:199,5
DA:200,5
DA:228,229
DA:230,229
DA:231,229
DA:232,229
DA:235,530
DA:236,272
DA:239,258
DA:240,29
DA:241,0
DA:244,0
DA:245,0
DA:251,0
DA:253,29
DA:255,29
DA:257,1
DA:258,1
DA:263,28
DA:264,28
DA:265,28
DA:271,229
DA:276,272
DA:277,5
DA:278,5
DA:279,5
DA:280,5
DA:282,54
DA:283,54
DA:284,54
DA:286,12
DA:287,12
DA:288,12
DA:289,12
DA:290,12
DA:291,12
DA:292,12
DA:293,12
DA:294,12
DA:295,12
DA:296,12
DA:297,12
DA:299,2
DA:312,2
DA:313,2
DA:315,2
DA:317,0
DA:318,0
DA:320,0
DA:326,2
DA:327,1
DA:329,5
DA:330,4
DA:331,4
DA:332,4
DA:339,2
DA:340,2
DA:348,2
DA:359,8
DA:360,8
DA:361,8
DA:362,8
DA:366,2
DA:367,1
DA:369,1
DA:374,7
DA:378,7
DA:380,3
DA:382,4
DA:387,7
DA:388,7
DA:389,7
DA:390,7
DA:393,136
DA:394,136
DA:395,136
DA:397,16
DA:400,16
DA:401,16
DA:403,16
DA:404,14
DA:406,14
DA:409,14
DA:410,10
DA:411,10
DA:415,4
DA:418,4
DA:419,4
DA:421,0
DA:422,2
DA:426,2
DA:427,2
DA:428,2
DA:431,8
DA:435,8
DA:438,28
DA:439,28
DA:440,28
DA:444,8
DA:447,8
DA:448,0
DA:449,0
DA:450,8
DA:452,8
DA:453,0
DA:454,8
DA:456,8
DA:457,8
DA:460,1
DA:461,1
DA:462,1
DA:463,1
DA:464,1
DA:465,1
DA:466,1
DA:468,10
DA:469,10
DA:470,10
DA:471,10
DA:472,10
DA:473,10
DA:475,14
DA:482,14
DA:483,14
DA:486,14
DA:487,3
DA:488,11
DA:491,14
DA:492,14
DA:495,2
DA:498,2
DA:499,2
DA:500,2
DA:501,2
DA:504,5
DA:505,5
DA:511,3
DA:512,3
DA:514,3
DA:515,3
DA:516,3
DA:517,3
DA:518,3
DA:522,3
DA:523,2
DA:524,2
DA:526,1
DA:527,1
DA:528,1
DA:529,1
DA:531,2
DA:532,2
DA:533,1
DA:534,2
DA:535,2
DA:536,2
DA:537,2
DA:538,2
DA:539,2
DA:540,2
DA:541,2
DA:542,2
DA:543,2
DA:548,246
DA:551,229
DA:552,229
DA:568,358
DA:575,358
DA:576,358
DA:577,358
DA:578,358
DA:581,1178
DA:582,614
DA:585,564
DA:586,220
DA:587,0
DA:589,0
DA:590,0
DA:595,38
DA:596,38
DA:597,38
DA:603,0
DA:604,0
DA:606,0
DA:608,0
DA:609,0
DA:611,0
DA:614,0
DA:615,0
DA:616,0
DA:617,0
DA:621,14
DA:623,168
DA:624,168
DA:625,168
DA:629,344
DA:634,614
DA:635,2
DA:636,2
DA:637,2
DA:639,232
DA:641,232
DA:642,11
DA:643,221
DA:644,232
DA:647,11
DA:648,11
DA:649,11
DA:650,11
DA:651,11
DA:653,0
DA:656,0
DA:657,0
DA:658,0
DA:659,0
DA:660,0
DA:661,0
DA:662,0
DA:663,0
DA:666,4
DA:667,4
DA:668,4
DA:669,4
DA:670,4
DA:671,4
DA:672,4
DA:674,246
DA:678,246
DA:679,246
DA:680,246
DA:682,246
DA:684,220
DA:685,220
DA:686,220
DA:688,29
DA:689,7
DA:690,7
DA:691,7
DA:692,22
DA:695,217
DA:696,217
DA:697,217
DA:699,1855
DA:700,1855
DA:701,1855
DA:702,1855
DA:703,1855
DA:704,0
DA:705,0
DA:706,1855
DA:707,1855
DA:710,217
DA:711,0
DA:712,0
DA:713,0
DA:714,0
DA:715,0
DA:716,0
DA:717,0
DA:718,0
DA:719,0
DA:720,217
DA:724,59
DA:726,59
DA:727,59
DA:728,59
DA:729,59
DA:730,59
DA:733,16
DA:735,16
DA:736,16
DA:739,61
DA:740,61
DA:741,61
DA:743,16
DA:744,14
DA:745,14
DA:746,2
DA:747,2
DA:748,2
DA:751,18
DA:753,18
DA:754,18
DA:756,18
DA:758,3
DA:759,3
DA:760,15
DA:764,15
DA:765,15
DA:766,15
DA:767,15
DA:768,15
DA:771,15
DA:772,15
DA:775,39
DA:776,39
DA:777,39
DA:778,39
DA:779,39
DA:782,15
DA:783,15
DA:784,15
DA:785,0
DA:786,0
DA:787,0
DA:790,11
DA:791,11
DA:792,11
DA:793,11
DA:795,13
DA:796,13
DA:797,13
DA:798,13
DA:799,13
DA:800,13
DA:801,13
DA:802,13
DA:803,13
DA:804,13
DA:806,2
DA:808,2
DA:809,2
DA:810,2
DA:813,0
DA:814,0
DA:816,0
DA:817,0
DA:818,0
DA:819,0
DA:820,0
DA:821,0
DA:823,0
DA:824,0
DA:825,0
DA:826,0
DA:827,0
DA:828,0
DA:829,0
DA:830,0
DA:831,0
DA:832,0
DA:833,0
DA:834,0
DA:835,0
DA:840,521
DA:843,358
DA:844,358
DA:848,2391
DA:849,2391
DA:850,2391
DA:851,2391
DA:853,2391
DA:854,2391
DA:855,2391
DA:856,2391
DA:857,2391
DA:858,2391
DA:860,2391
DA:861,2391
DA:862,2391
DA:863,2391
DA:864,2391
DA:865,2391
DA:867,2391
DA:868,2391
DA:869,2391
DA:870,2391
DA:871,2391
DA:872,2391
DA:874,2391
DA:875,2391
DA:878,2374
DA:879,2374
DA:880,2374
DA:881,2374
DA:882,2374
DA:883,2374
DA:886,17
DA:887,17
DA:888,17
DA:889,17
DA:890,17
DA:891,17
DA:931,6148
DA:932,6148
DA:933,6148
DA:938,2273
DA:939,2273
DA:941,2273
DA:942,2273
DA:943,2273
DA:944,2273
DA:945,2273
DA:947,2273
DA:948,2273
DA:952,1691
DA:953,1691
DA:954,1691
DA:955,1691
DA:956,1691
DA:957,1691
DA:958,1691
DA:959,1691
DA:960,1691
DA:961,1691
DA:962,1691
DA:966,52
DA:967,52
DA:968,52
DA:969,52
DA:973,1016
DA:974,1016
DA:975,1016
DA:976,1016
DA:977,1016
DA:978,1016
DA:979,1016
DA:980,1016
DA:981,1016
DA:982,1016
DA:983,1016
DA:987,15
DA:988,15
DA:989,15
DA:990,15
DA:993,2372
DA:994,2372
DA:1001,2372
DA:1004,144
DA:1005,144
DA:1006,1152
DA:1007,1152
DA:1008,1152
DA:1009,144
DA:1010,144
DA:1015,869
DA:1018,869
DA:1019,869
DA:1020,869
DA:1022,869
DA:1023,869
DA:1026,1877
DA:1027,959
DA:1029,918
DA:1030,49
DA:1031,49
DA:1034,869
DA:1035,869
DA:1037,869
DA:1038,869
DA:1040,869
DA:1041,869
DA:1043,869
DA:1044,869
DA:1046,869
DA:1052,959
DA:1053,79
DA:1054,79
DA:1055,1
DA:1056,65
DA:1057,13
DA:1058,0
DA:1059,0
DA:1060,0
DA:1062,79
DA:1063,79
DA:1064,880
DA:1066,880
DA:1067,29
DA:1069,29
DA:1070,29
DA:1071,29
DA:1074,62
DA:1075,62
DA:1076,55
DA:1077,53
DA:1078,53
DA:1080,53
DA:1081,7
DA:1082,7
DA:1083,7
DA:1084,7
DA:1085,7
DA:1086,7
DA:1087,7
DA:1088,7
DA:1089,46
DA:1092,53
DA:1093,33
DA:1094,33
DA:1097,20
DA:1101,2
DA:1102,2
DA:1106,7
DA:1107,7
DA:1112,29
DA:1113,17
DA:1114,17
DA:1115,17
DA:1116,17
DA:1117,17
DA:1118,17
DA:1119,17
DA:1120,17
DA:1123,9
DA:1124,9
DA:1125,9
DA:1127,9
DA:1128,4
DA:1129,4
DA:1130,2
DA:1131,2
DA:1132,0
DA:1133,0
DA:1134,0
DA:1136,4
DA:1138,4
DA:1139,4
DA:1140,4
DA:1141,4
DA:1142,4
DA:1144,5
DA:1145,5
DA:1146,3
DA:1147,3
DA:1148,5
DA:1149,5
DA:1150,5
DA:1154,20
DA:1158,18
DA:1160,18
DA:1161,18
DA:1162,18
DA:1164,18
DA:1166,17
DA:1167,10
DA:1168,10
DA:1169,17
DA:1170,17
DA:1171,1
DA:1174,11
DA:1176,11
DA:1177,11
DA:1178,11
DA:1180,11
DA:1183,10
DA:1184,10
DA:1185,10
DA:1186,10
DA:1188,10
DA:1189,10
DA:1190,10
DA:1191,1
DA:1194,11
DA:1196,11
DA:1197,11
DA:1198,1
DA:1200,10
DA:1202,11
DA:1205,11
DA:1206,20
DA:1207,9
DA:1208,9
DA:1209,9
DA:1210,9
DA:1212,11
DA:1213,7
DA:1214,7
DA:1217,793
DA:1219,793
DA:1220,793
DA:1222,793
DA:1223,790
DA:1224,790
DA:1225,790
DA:1228,790
DA:1230,723
DA:1231,723
DA:1232,723
DA:1233,723
DA:1236,67
DA:1237,67
DA:1238,66
DA:1240,1
DA:1244,790
DA:1245,789
DA:1247,861
DA:1248,72
DA:1249,72
DA:1250,72
DA:1251,72
DA:1254,789
DA:1255,789
DA:1257,789
DA:1258,4
DA:1259,4
DA:1260,4
DA:1261,4
DA:1262,4
DA:1263,4
DA:1264,4
DA:1265,4
DA:1266,4
DA:1267,4
DA:1268,4
DA:1269,4
DA:1270,4
DA:1271,4
DA:1272,4
DA:1273,4
DA:1274,4
DA:1275,4
DA:1276,4
DA:1277,4
DA:1278,4
DA:1279,4
DA:1280,4
DA:1281,4
DA:1282,4
DA:1283,4
DA:1284,4
DA:1285,4
DA:1286,4
DA:1287,4
DA:1288,4
DA:1289,4
DA:1290,4
DA:1291,4
DA:1292,4
DA:1293,4
DA:1294,4
DA:1295,4
DA:1296,4
DA:1297,39
DA:1298,39
DA:1299,39
DA:1300,39
DA:1301,39
DA:1302,39
DA:1303,39
DA:1304,39
DA:1305,39
DA:1306,39
DA:1307,39
DA:1308,60
DA:1309,60
DA:1310,60
DA:1311,60
DA:1312,60
DA:1313,60
DA:1314,60
DA:1315,60
DA:1316,60
DA:1317,60
DA:1318,60
DA:1319,60
DA:1320,60
DA:1321,60
DA:1322,60
DA:1323,60
DA:1324,60
DA:1325,60
DA:1326,60
DA:1327,60
DA:1328,60
DA:1329,60
DA:1330,60
DA:1331,60
DA:1332,60
DA:1333,60
DA:1334,60
DA:1335,558
DA:1339,789
DA:1340,61
DA:1341,61
DA:1342,61
DA:1343,61
DA:1344,61
DA:1345,61
DA:1346,61
DA:1347,61
DA:1348,61
DA:1349,61
DA:1350,61
DA:1351,61
DA:1352,61
DA:1353,61
DA:1354,61
DA:1355,61
DA:1356,61
DA:1357,61
DA:1358,61
DA:1359,61
DA:1360,61
DA:1361,61
DA:1362,61
DA:1363,61
DA:1364,61
DA:1365,61
DA:1366,61
DA:1367,61
DA:1368,61
DA:1369,61
DA:1370,61
DA:1371,61
DA:1372,61
DA:1373,61
DA:1374,61
DA:1375,61
DA:1376,61
DA:1377,61
DA:1378,61
DA:1379,61
DA:1380,61
DA:1381,61
DA:1382,61
DA:1383,61
DA:1384,61
DA:1385,61
DA:1386,61
DA:1387,61
DA:1388,61
DA:1389,61
DA:1390,61
DA:1391,61
DA:1392,61
DA:1393,61
DA:1394,61
DA:1395,61
DA:1396,61
DA:1397,61
DA:1398,61
DA:1399,61
DA:1400,61
DA:1401,61
DA:1402,61
DA:1403,61
DA:1404,61
DA:1405,61
DA:1406,61
DA:1407,61
DA:1408,61
DA:1409,61
DA:1410,61
DA:1411,61
DA:1412,61
DA:1413,61
DA:1414,61
DA:1415,61
DA:1416,61
DA:1417,76
DA:1418,76
DA:1419,76
DA:1420,76
DA:1421,76
DA:1422,76
DA:1423,76
DA:1424,286
DA:1428,789
DA:1429,633
DA:1430,633
DA:1431,633
DA:1432,633
DA:1433,633
DA:1435,156
DA:1436,1
DA:1437,3
DA:1440,4
DA:1441,4
DA:1442,4
DA:1443,4
DA:1444,4
DA:1445,4
DA:1446,4
DA:1447,4
DA:1449,6
DA:1451,6
DA:1452,4
DA:1453,4
DA:1457,4
DA:1458,2
DA:1459,2
DA:1464,2
DA:1467,8
DA:1468,8
DA:1470,7
DA:1471,7
DA:1472,7
DA:1474,7
DA:1475,7
DA:1477,7
DA:1479,5
DA:1480,4
DA:1481,4
DA:1482,5
DA:1483,5
DA:1484,2
DA:1485,1
DA:1486,1
DA:1487,1
DA:1488,1
DA:1489,1
DA:1490,1
DA:1491,1
DA:1492,1
DA:1493,1
DA:1499,0
DA:1503,869
DA:1517,1396
DA:1519,1396
DA:1520,530
DA:1521,3
DA:1522,210
DA:1523,105
DA:1524,101
DA:1525,111
DA:1526,0
DA:1528,530
DA:1529,866
DA:1531,866
DA:1532,1396
DA:1542,8
DA:1544,8
DA:1545,5
DA:1546,1
DA:1547,3
DA:1548,1
DA:1549,0
DA:1550,0
DA:1551,0
DA:1553,5
DA:1554,3
DA:1556,3
DA:1557,8
DA:1571,113
DA:1573,113
DA:1576,113
DA:1577,113
DA:1578,113
DA:1579,113
DA:1580,113
DA:1581,113
DA:1582,0
DA:1583,0
DA:1584,0
DA:1585,0
DA:1586,0
DA:1589,0
DA:1593,113
DA:1594,106
DA:1595,106
DA:1596,106
DA:1597,106
DA:1598,106
DA:1600,113
DA:1601,113
DA:1612,7
DA:1613,7
DA:1619,7
DA:1626,7
DA:1728,1
DA:1729,1
DA:1730,1
DA:1733,1
DA:1734,1
DA:1737,1
DA:1739,1
DA:1740,1
DA:1741,1
DA:1744,1
DA:1745,1
DA:1746,1
DA:1749,1
DA:1750,1
DA:1753,1
DA:1756,1
DA:1757,1
DA:1759,1
DA:1760,1
DA:1763,1
DA:1764,1
DA:1765,1
DA:1768,1
DA:1771,1
DA:1772,1
DA:1773,1
DA:1774,1
DA:1777,1
DA:1779,1
DA:1780,1
DA:1781,1
DA:1782,1
DA:1783,1
DA:1784,1
DA:1787,1
DA:1790,1
DA:1791,1
DA:1792,1
DA:1793,1
DA:1794,1
DA:1795,1
DA:1796,1
DA:1799,1
DA:1800,1
DA:1801,1
DA:1802,1
DA:1803,1
DA:1804,1
DA:1805,1
DA:1808,1
DA:1809,1
DA:1810,1
DA:1811,1
DA:1812,1
DA:1813,1
DA:1814,1
DA:1818,1
DA:1819,1
DA:1820,1
DA:1821,1
DA:1822,1
DA:1823,1
DA:1824,1
DA:1828,1
DA:1829,1
DA:1830,1
DA:1831,1
DA:1832,1
DA:1833,1
DA:1834,1
DA:1837,1
DA:1838,1
DA:1839,1
DA:1840,1
DA:1841,1
DA:1842,1
DA:1843,1
DA:1844,1
DA:1847,1
DA:1848,1
DA:1849,1
DA:1850,1
DA:1851,1
DA:1852,1
DA:1853,1
DA:1855,1
DA:1858,1
DA:1859,1
DA:1861,1
DA:1862,1
DA:1865,1
DA:1867,1
DA:1868,1
DA:1869,1
DA:1870,1
DA:1871,1
DA:1872,1
DA:1875,1
DA:1876,1
DA:1877,1
DA:1878,1
DA:1879,1
DA:1880,1
DA:1881,1
DA:1882,1
DA:1883,1
DA:1884,1
DA:1887,1
DA:1889,1
DA:1890,1
DA:1891,1
DA:1894,1
DA:1895,1
DA:1896,1
DA:1897,1
DA:1900,1
DA:1901,1
DA:1904,1
DA:1907,1
DA:1908,1
DA:1912,1
DA:1913,1
DA:1916,1
DA:1917,1
DA:1918,1
DA:1921,1
DA:1926,1
DA:1927,1
DA:1930,1
DA:1931,1
DA:1934,1
DA:1935,1
DA:1938,1
DA:1939,1
DA:1942,1
DA:1943,1
DA:1944,1
DA:1947,1
DA:1949,1
DA:1950,1
DA:1951,1
DA:1952,1
DA:1953,1
DA:1954,1
DA:1955,1
DA:1956,1
DA:1957,1
DA:1958,1
DA:1961,1
DA:1962,1
DA:1963,1
DA:1964,1
DA:1965,1
DA:1966,1
DA:1967,1
DA:1968,1
DA:1969,1
DA:1970,1
DA:1973,1
DA:1976,1
DA:1977,1
DA:1978,1
DA:1979,1
DA:1980,1
DA:1981,1
DA:1982,1
DA:1983,1
DA:1984,1
DA:1985,1
DA:1986,1
DA:1987,1
DA:1990,1
DA:1992,1
DA:1993,1
DA:1994,1
DA:1995,1
DA:1996,1
DA:1997,1
DA:1998,1
DA:2001,1
DA:2002,1
DA:2003,1
DA:2004,1
DA:2005,1
DA:2006,1
DA:2007,1
DA:2010,1
DA:2013,1
DA:2014,1
DA:2015,1
DA:2016,1
DA:2017,1
DA:2018,1
DA:2019,1
DA:2022,1
DA:2023,1
DA:2024,1
DA:2025,1
DA:2026,1
DA:2027,1
DA:2028,1
DA:2029,1
DA:2030,1
DA:2033,1
DA:2035,1
DA:2036,1
DA:2037,1
DA:2038,1
DA:2039,1
DA:2040,1
DA:2041,1
DA:2044,1
DA:2045,1
DA:2046,1
DA:2047,1
DA:2048,1
DA:2049,1
DA:2050,1
DA:2053,1
DA:2054,1
DA:2057,1
DA:2059,1
DA:2063,1
DA:2064,1
DA:2066,1
DA:2067,1
DA:2069,1
DA:2070,1
DA:2072,1
DA:2073,1
DA:2074,1
DA:2077,1
DA:2079,1
DA:2080,1
DA:2081,1
DA:2082,1
DA:2083,1
DA:2084,1
DA:2085,1
DA:2086,1
DA:2087,1
DA:2088,1
DA:2089,1
DA:2090,1
DA:2091,1
DA:2092,1
DA:2093,1
DA:2096,1
DA:2097,1
DA:2098,1
DA:2099,1
DA:2100,1
DA:2101,1
DA:2102,1
DA:2105,1
DA:2106,1
DA:2107,1
DA:2108,1
DA:2109,1
DA:2110,1
DA:2113,1
DA:2114,1
DA:2115,1
DA:2116,1
DA:2117,1
DA:2118,1
DA:2121,1
DA:2122,1
DA:2123,1
DA:2124,1
DA:2125,1
DA:2126,1
DA:2127,1
DA:2128,1
DA:2129,1
DA:2130,1
DA:2133,1
DA:2135,1
DA:2136,1
DA:2137,1
DA:2140,1
DA:2141,1
DA:2142,1
DA:2143,1
DA:2146,1
DA:2147,1
DA:2148,1
DA:2149,1
DA:2150,1
DA:2151,1
DA:2152,1
DA:2153,1
DA:2156,1
DA:2157,1
DA:2158,1
DA:2159,1
DA:2160,1
DA:2161,1
DA:2162,1
DA:2165,1
DA:2167,1
DA:2168,1
DA:2169,1
DA:2172,1
DA:2173,1
DA:2174,1
DA:2175,1
DA:2176,1
DA:2177,1
DA:2180,1
DA:2181,1
DA:2182,1
DA:2183,1
DA:2184,1
DA:2185,1
DA:2186,1
DA:2187,1
DA:2188,1
DA:2191,1
DA:2195,1
DA:2196,1
DA:2197,1
DA:2198,1
DA:2199,1
DA:2200,1
DA:2203,1
DA:2204,1
DA:2205,1
DA:2206,1
DA:2207,1
DA:2208,1
DA:2209,1
DA:2212,1
DA:2213,1
DA:2214,1
DA:2215,1
DA:2216,1
DA:2217,1
DA:2220,1
DA:2221,1
DA:2222,1
DA:2223,1
DA:2224,1
DA:2225,1
DA:2226,1
DA:2229,1
DA:2231,1
DA:2232,1
DA:2233,1
DA:2234,1
DA:2235,1
DA:2236,1
DA:2237,1
DA:2240,1
DA:2241,1
DA:2242,1
DA:2243,1
DA:2244,1
DA:2245,1
DA:2246,1
DA:2247,1
DA:2250,1
DA:2251,1
DA:2252,1
DA:2253,1
DA:2254,1
DA:2255,1
DA:2256,1
DA:2259,1
DA:2260,1
DA:2261,1
DA:2262,1
DA:2263,1
DA:2264,1
DA:2265,1
DA:2268,16
DA:2269,15
DA:2270,15
DA:2271,15
DA:2272,15
DA:2273,15
DA:2274,15
DA:2275,15
DA:2276,15
DA:2278,1
DA:2281,1
DA:2282,1
DA:2283,1
DA:2284,1
DA:2286,1
DA:2287,1
DA:2288,1
DA:2289,1
DA:2291,1
DA:2292,1
DA:2293,1
DA:2295,1
DA:2296,1
DA:2297,1
DA:2298,1
DA:2301,1
DA:2303,1
DA:2304,1
DA:2305,1
DA:2306,1
DA:2307,1
DA:2308,1
DA:2309,1
DA:2314,1
DA:2315,1
DA:2316,1
DA:2317,1
DA:2318,1
DA:2319,1
DA:2320,1
DA:2321,1
DA:2336,1
DA:2339,1
DA:2341,1
DA:2342,1
DA:2343,1
DA:2344,1
DA:2345,1
DA:2346,1
DA:2347,1
DA:2348,1
DA:2349,1
DA:2350,1
DA:2353,1
DA:2354,1
DA:2355,1
DA:2356,1
DA:2357,1
DA:2358,1
DA:2359,1
DA:2360,1
DA:2361,1
DA:2362,1
DA:2363,1
DA:2366,1
DA:2367,1
DA:2368,1
DA:2369,1
DA:2370,1
DA:2371,1
DA:2372,1
DA:2373,1
DA:2374,1
DA:2375,1
DA:2376,1
DA:2379,1
DA:2380,1
DA:2381,1
DA:2382,1
DA:2383,1
DA:2384,1
DA:2385,1
DA:2386,1
DA:2387,1
DA:2388,1
DA:2389,1
DA:2390,1
DA:2393,1
DA:2394,1
DA:2395,1
DA:2396,1
DA:2397,1
DA:2398,1
DA:2399,1
DA:2400,1
DA:2403,1
DA:2405,1
DA:2406,1
DA:2407,1
DA:2408,1
DA:2409,1
DA:2413,1
DA:2414,1
DA:2417,1
DA:2420,1
DA:2422,1
DA:2423,1
DA:2425,1
DA:2426,1
DA:2428,1
DA:2429,1
DA:2431,1
DA:2432,1
DA:2434,1
DA:2435,1
DA:2436,1
DA:2437,1
DA:2438,1
DA:2440,1
DA:2441,1
DA:2443,1
DA:2444,1
DA:2446,1
DA:2447,1
DA:2449,1
DA:2450,1
DA:2451,1
DA:2454,1
DA:2458,1
DA:2459,1
DA:2460,1
DA:2461,1
DA:2462,1
DA:2463,1
DA:2466,1
DA:2467,1
DA:2468,1
DA:2469,1
DA:2470,1
DA:2471,1
DA:2472,1
DA:2473,1
DA:2476,1
DA:2478,1
DA:2479,1
DA:2480,1
DA:2481,1
DA:2482,1
DA:2483,1
DA:2484,1
DA:2485,1
DA:2488,1
DA:2490,1
DA:2491,1
DA:2496,1
DA:2498,1
DA:2499,1
DA:2502,1
DA:2504,1
DA:2505,1
DA:2506,1
DA:2507,1
DA:2508,1
DA:2509,1
DA:2513,1
DA:2514,1
DA:2515,1
DA:2516,1
DA:2517,1
DA:2518,1
DA:2519,1
DA:2520,1
DA:2523,1
DA:2526,1
DA:2528,1
DA:2529,21
DA:2530,20
DA:2531,20
DA:2532,1
DA:2533,1
DA:2534,1
DA:2535,1
DA:2538,1
DA:2540,1
DA:2541,10
DA:2542,10
DA:2543,10
DA:2544,10
DA:2545,10
DA:2546,10
DA:2547,1
DA:2548,1
DA:2549,1
DA:2550,1
DA:2553,1
DA:2555,9
DA:2556,136
DA:2557,128
DA:2558,128
DA:2559,128
DA:2560,128
DA:2561,128
DA:2562,128
DA:2563,128
DA:2566,1
DA:2569,1
DA:2574,16
DA:2575,15
DA:2576,15
DA:2577,15
DA:2578,15
DA:2579,15
DA:2580,15
DA:2581,15
DA:2582,15
DA:2583,15
DA:2586,9
DA:2587,8
DA:2588,8
DA:2589,8
DA:2590,8
DA:2591,8
DA:2592,8
DA:2593,8
DA:2594,8
DA:2595,8
DA:2598,16
DA:2599,15
DA:2600,15
DA:2601,15
DA:2602,15
DA:2603,15
DA:2604,15
DA:2605,15
DA:2606,15
DA:2607,15
DA:2608,1
DA:2611,1
DA:2615,1
DA:2616,1
DA:2617,1
DA:2618,1
DA:2619,1
DA:2623,1
DA:2624,1
DA:2625,1
DA:2626,1
DA:2627,1
DA:2628,1
DA:2629,1
DA:2630,1
DA:2631,1
DA:2632,1
DA:2633,1
DA:2634,1
DA:2635,1
DA:2636,1
DA:2640,1
DA:2641,1
DA:2642,1
DA:2643,1
DA:2644,1
DA:2645,1
DA:2646,1
DA:2647,1
DA:2648,1
DA:2649,1
DA:2650,1
DA:2651,1
DA:2652,1
DA:2653,1
DA:2654,1
DA:2655,1
DA:2656,1
DA:2657,1
DA:2658,1
DA:2659,1
DA:2660,1
DA:2661,1
DA:2662,1
DA:2663,1
DA:2664,1
DA:2665,1
DA:2669,1
DA:2670,1
DA:2671,1
DA:2672,1
DA:2673,1
DA:2674,1
DA:2675,1
DA:2676,1
DA:2680,1
DA:2681,1
DA:2682,1
DA:2683,1
DA:2684,1
DA:2685,1
DA:2686,1
DA:2687,1
DA:2688,1
DA:2689,1
DA:2690,1
DA:2694,1
DA:2695,1
DA:2696,1
DA:2697,1
DA:2698,1
DA:2699,1
DA:2700,1
DA:2701,1
DA:2702,1
DA:2703,1
DA:2704,1
DA:2705,1
DA:2706,1
DA:2707,1
DA:2708,1
DA:2709,1
DA:2710,1
DA:2714,1
DA:2715,1
DA:2716,1
DA:2717,1
DA:2718,1
DA:2719,1
DA:2720,1
DA:2721,1
DA:2722,1
DA:2723,1
DA:2724,1
DA:2725,1
DA:2726,1
DA:2727,1
DA:2728,1
DA:2729,1
DA:2730,1
DA:2731,1
DA:2732,1
DA:2733,1
DA:2737,1
DA:2738,1
DA:2739,1
DA:2740,1
DA:2741,1
DA:2742,1
DA:2743,1
DA:2744,1
DA:2745,1
DA:2746,1
DA:2747,1
DA:2748,1
DA:2749,1
DA:2750,1
DA:2751,1
DA:2752,1
DA:2753,1
DA:2754,1
DA:2755,1
DA:2756,1
DA:2757,1
DA:2758,1
DA:2759,1
DA:2770,1
DA:2771,1
DA:2772,1
DA:2773,1
DA:2774,1
DA:2776,1
DA:2779,1
DA:2781,1
DA:2782,1
DA:2783,1
DA:2784,1
DA:2785,1
DA:2786,1
DA:2787,1
DA:2788,1
DA:2792,1
DA:2793,1
DA:2794,1
DA:2795,1
DA:2796,1
DA:2800,1
DA:2801,1
DA:2802,1
DA:2803,1
DA:2804,1
DA:2805,1
DA:2806,1
DA:2807,1
DA:2811,1
DA:2812,1
DA:2813,1
DA:2814,1
DA:2815,1
DA:2817,1
DA:2820,1
DA:2825,8
DA:2826,7
DA:2827,7
DA:2828,7
DA:2829,7
DA:2830,7
DA:2831,7
DA:2832,7
DA:2833,7
DA:2836,9
DA:2837,8
DA:2838,8
DA:2839,8
DA:2840,8
DA:2841,8
DA:2842,8
DA:2843,8
DA:2844,8
DA:2847,1
DA:2848,1
DA:2849,1
DA:2850,1
DA:2851,1
DA:2852,1
DA:2855,1
DA:2856,1
DA:2857,1
DA:2858,1
DA:2859,1
DA:2860,1
DA:2861,1
DA:2864,1
DA:2866,1
DA:2867,1
DA:2870,1
DA:2871,1
DA:2873,1
DA:2876,1
DA:2878,1
DA:2879,1
DA:2881,1
DA:2884,1
DA:2886,1
DA:2887,1
DA:2889,1
DA:2892,1
DA:2894,1
DA:2895,1
DA:2896,1
DA:2897,1
DA:2899,1
DA:2902,1
DA:2904,1
DA:2905,1
DA:2906,1
DA:2907,1
DA:2911,1
DA:2912,1
DA:2913,1
DA:2914,1
DA:2915,1
DA:2917,1
DA:2920,1
DA:2922,1
DA:2923,1
DA:2927,1
DA:2928,1
DA:2930,1
DA:2933,1
DA:2935,1
DA:2936,1
DA:2937,1
DA:2938,1
DA:2939,1
DA:2940,1
DA:2941,1
DA:2942,1
DA:2943,1
DA:2947,1
DA:2948,1
DA:2949,1
DA:2950,1
DA:2951,1
DA:2952,1
DA:2953,1
DA:2954,1
DA:2955,1
DA:2957,1
DA:2960,1
DA:2964,1
DA:2965,1
DA:2966,1
DA:2967,1
DA:2968,1
DA:2971,1
DA:2972,1
DA:2973,1
DA:2974,1
DA:2975,1
DA:2978,1
DA:2979,1
DA:2980,1
DA:2981,1
DA:2982,1
DA:2985,1
DA:2986,1
DA:2987,1
DA:2988,1
DA:2989,1
DA:2992,1
DA:2993,1
DA:2994,1
DA:2995,1
DA:2996,1
DA:2997,1
DA:3000,1
DA:3002,8
DA:3003,707
DA:3004,700
DA:3005,700
DA:3006,700
DA:3007,700
DA:3008,700
DA:3009,700
DA:3010,700
DA:3011,700
DA:3015,1
DA:3016,1
DA:3017,1
DA:3018,1
DA:3019,1
DA:3020,1
DA:3023,1
DA:3024,1
DA:3025,1
DA:3026,1
DA:3027,1
DA:3028,1
DA:3029,1
DA:3032,1
DA:3037,1
DA:3038,1
DA:3039,1
DA:3040,1
DA:3041,1
DA:3042,1
DA:3046,1
DA:3047,1
DA:3048,1
DA:3049,1
DA:3050,1
DA:3054,1
DA:3057,1
DA:3058,1
DA:3060,1
DA:3061,1
DA:3064,1
DA:3065,1
DA:3070,101
DA:3071,100
DA:3072,100
DA:3073,100
DA:3074,100
DA:3075,1
DA:3078,1
DA:3080,1
DA:3084,202
DA:3085,201
DA:3086,201
DA:3089,101
DA:3090,100
DA:3091,100
DA:3094,101
DA:3095,100
DA:3096,100
DA:3099,101
DA:3100,100
DA:3101,100
DA:3102,11
DA:3103,10
DA:3104,10
DA:3105,1
DA:3108,1
DA:3110,1
DA:3113,1
DA:3116,1
DA:3119,1
DA:3122,1
DA:3123,1
DA:3124,1
DA:3125,1
DA:3128,1
DA:3129,1
DA:3130,1
DA:3132,1
DA:3135,1
DA:3139,1
DA:3140,22
DA:3141,21
DA:3142,21
DA:3143,11
DA:3144,10
DA:3145,10
DA:3146,11
DA:3147,10
DA:3148,10
DA:3149,11
DA:3150,10
DA:3151,10
DA:3154,1
DA:3155,1
DA:3156,1
DA:3158,1
DA:3159,1
DA:3160,1
DA:3161,1
DA:3162,1
DA:3164,1
DA:3165,1
DA:3166,1
DA:3167,1
DA:3169,1
DA:3171,1
DA:3172,1
DA:3173,1
DA:3175,1
DA:3176,1
DA:3177,1
DA:3178,1
DA:3179,1
DA:3181,1
DA:3182,1
DA:3183,1
DA:3184,1
DA:3185,1
DA:3186,1
DA:3187,1
DA:3188,1
DA:3190,1
DA:3191,1
DA:3192,1
DA:3193,1
DA:3194,1
DA:3195,1
DA:3196,1
DA:3197,1
DA:3198,1
DA:3201,1
DA:3205,1
DA:3206,22
DA:3207,21
DA:3208,21
DA:3209,11
DA:3210,10
DA:3211,10
DA:3212,11
DA:3213,10
DA:3214,10
DA:3215,11
DA:3216,10
DA:3217,10
DA:3220,1
DA:3221,1
DA:3222,1
DA:3224,1
DA:3225,1
DA:3226,1
DA:3227,1
DA:3228,1
DA:3230,1
DA:3231,1
DA:3232,1
DA:3233,1
DA:3235,1
DA:3237,1
DA:3238,1
DA:3239,1
DA:3241,1
DA:3242,1
DA:3243,1
DA:3244,1
DA:3245,1
DA:3246,1
DA:3249,1
DA:3251,8
DA:3252,154
DA:3253,147
DA:3254,147
DA:3255,147
DA:3256,147
DA:3257,147
DA:3258,147
DA:3259,147
DA:3260,147
DA:3262,1
DA:3265,1
DA:3267,8
DA:3268,7
DA:3269,7
DA:3270,7
DA:3271,7
DA:3272,7
DA:3273,7
DA:3274,7
DA:3275,7
DA:3278,8
DA:3279,7
DA:3280,7
DA:3281,7
DA:3282,7
DA:3283,7
DA:3284,7
DA:3285,7
DA:3286,7
DA:3289,1
DA:3290,1
DA:3291,1
DA:3292,1
DA:3293,1
DA:3294,1
DA:3296,1
DA:3299,1
DA:3301,1
DA:3302,1
DA:3303,1
DA:3304,1
DA:3305,1
DA:3306,1
DA:3310,1
DA:3311,1
DA:3312,1
DA:3313,1
DA:3314,1
DA:3315,1
DA:3317,1
DA:3320,1
DA:3322,1
DA:3323,1
DA:3324,1
DA:3325,1
DA:3326,1
DA:3330,1
DA:3331,1
DA:3332,1
DA:3333,1
DA:3334,1
DA:3338,1
DA:3339,1
DA:3340,1
DA:3341,1
DA:3342,1
DA:3346,1
DA:3347,1
DA:3348,1
DA:3349,1
DA:3350,1
DA:3354,1
DA:3355,1
DA:3356,1
DA:3357,1
DA:3358,1
DA:3359,1
DA:3360,1
DA:3361,1
DA:3363,1
DA:3366,1
DA:3368,1
DA:3369,1
DA:3370,1
DA:3371,1
DA:3372,1
DA:3373,1
DA:3376,1
DA:3377,1
DA:3378,1
DA:3379,1
DA:3380,1
DA:3381,1
DA:3385,1
DA:3386,1
DA:3387,1
DA:3388,1
DA:3389,1
DA:3390,1
DA:3407,1
DA:3408,1
DA:3409,1
DA:3410,1
DA:3411,1
DA:3412,1
DA:3413,1
DA:3414,1
DA:3415,1
DA:3416,1
DA:3419,1
DA:3421,1
DA:3422,1
DA:3423,1
DA:3424,1
DA:3425,1
DA:3426,1
DA:3427,1
DA:3428,1
DA:3429,1
DA:3433,1
DA:3434,1
DA:3435,1
DA:3436,1
DA:3437,1
DA:3438,1
DA:3439,1
DA:3440,1
DA:3441,1
DA:3443,1
DA:3446,1
DA:3448,1
DA:3449,1
DA:3450,1
DA:3451,1
DA:3452,1
DA:3456,1
DA:3457,1
DA:3458,1
DA:3459,1
DA:3460,1
DA:3462,1
DA:3465,1
DA:3469,22
DA:3470,21
DA:3471,21
DA:3472,21
DA:3473,21
DA:3474,21
DA:3475,21
DA:3476,21
DA:3479,8
DA:3480,77
DA:3481,70
DA:3482,70
DA:3483,70
DA:3484,70
DA:3485,70
DA:3486,70
DA:3487,70
DA:3491,8
DA:3492,7
DA:3493,7
DA:3494,7
DA:3495,7
DA:3496,7
DA:3497,7
DA:3498,7
DA:3499,1
DA:3502,1
DA:3504,7
DA:3505,6
DA:3506,15
DA:3507,15
DA:3508,15
DA:3509,6
DA:3510,6
DA:3514,1
DA:3515,1
DA:3516,1
DA:3517,1
DA:3518,1
DA:3519,1
DA:3520,1
DA:3521,1
DA:3524,1
DA:3525,1
DA:3526,1
DA:3527,1
DA:3528,1
DA:3529,1
DA:3530,1
DA:3531,1
DA:3534,1
DA:3535,11
DA:3536,10
DA:3537,10
DA:3538,1
DA:3539,1
DA:3540,1
DA:3543,1
DA:3545,12
DA:3546,11
DA:3547,55
DA:3548,55
DA:3549,55
DA:3550,11
DA:3551,11
DA:3553,1
DA:3556,1
DA:3558,12
DA:3559,11
DA:3560,55
DA:3561,55
DA:3562,55
DA:3563,55
DA:3564,55
DA:3565,55
DA:3566,11
DA:3567,11
DA:3569,1
DA:3573,1
DA:3576,1
DA:3577,1
DA:3578,1
DA:3581,1
DA:3584,1
DA:3585,1
DA:3589,1
DA:3590,1
DA:3593,1
DA:3594,1
DA:3595,1
DA:3596,1
DA:3599,1
DA:3600,1
DA:3601,1
DA:3602,1
DA:3605,1
DA:3607,1
DA:3608,1
DA:3610,1
DA:3611,1
DA:3613,1
DA:3614,1
DA:3615,1
DA:3620,1
DA:3623,1
DA:3625,1
DA:3634,1
BRF:0
BRH:0
LF:2242
LH:2148
end_of_record
SF:/Volumes/Files_1/iron-beam/rust-conversion/rust/entities/entities_io_operations/src/export.rs
FN:48,_RNvMNtCsiqbJlScRaBi_22entities_io_operations6exportNtB2_3Mfa3new
FN:57,_RNvMNtCsiqbJlScRaBi_22entities_io_operations6exportNtB2_3Mfa4hash
FN:245,_RNvMs2_NtCsiqbJlScRaBi_22entities_io_operations6exportNtB5_11ExportTable10table_size
FN:143,_RNvMs2_NtCsiqbJlScRaBi_22entities_io_operations6exportNtB5_11ExportTable10with_limit
FN:253,_RNvMs2_NtCsiqbJlScRaBi_22entities_io_operations6exportNtB5_11ExportTable11entry_bytes
FN:219,_RNvMs2_NtCsiqbJlScRaBi_22entities_io_operations6exportNtB5_11ExportTable16get_or_make_stub
FN:161,_RNvMs2_NtCsiqbJlScRaBi_22entities_io_operations6exportNtB5_11ExportTable3get
FN:133,_RNvMs2_NtCsiqbJlScRaBi_22entities_io_operations6exportNtB5_11ExportTable3new
FN:177,_RNvMs2_NtCsiqbJlScRaBi_22entities_io_operations6exportNtB5_11ExportTable3put
FN:228,_RNvMs2_NtCsiqbJlScRaBi_22entities_io_operations6exportNtB5_11ExportTable4list
FN:303,_RNvMs2_NtCsiqbJlScRaBi_22entities_io_operations6exportNtB5_11ExportTable5clear
FN:268,_RNvMs2_NtCsiqbJlScRaBi_22entities_io_operations6exportNtB5_11ExportTable6remove
FN:295,_RNvMs2_NtCsiqbJlScRaBi_22entities_io_operations6exportNtB5_11ExportTable8contains
FN:237,_RNvMs2_NtCsiqbJlScRaBi_22entities_io_operations6exportNtB5_11ExportTable9list_size
FN:78,_RNvMs_NtCsiqbJlScRaBi_22entities_io_operations6exportNtB4_6Export3new
FN:101,_RNvMs_NtCsiqbJlScRaBi_22entities_io_operations6exportNtB4_6Export4hash
FN:96,_RNvMs_NtCsiqbJlScRaBi_22entities_io_operations6exportNtB4_6Export6is_bif
FN:87,_RNvMs_NtCsiqbJlScRaBi_22entities_io_operations6exportNtB4_6Export7new_bif
FN:107,_RNvXs0_NtCsiqbJlScRaBi_22entities_io_operations6exportNtB5_6ExportNtNtCsksJIhyblnkX_4core3cmp9PartialEq2eq
FN:314,_RNvXs3_NtCsiqbJlScRaBi_22entities_io_operations6exportNtB5_11ExportTableNtNtCsksJIhyblnkX_4core7default7Default7default
FN:347,_RNvNtNtCsiqbJlScRaBi_22entities_io_operations6export5testss_13test_mfa_hash
FN:377,_RNvNtNtCsiqbJlScRaBi_22entities_io_operations6export5testss_15test_export_bif
FN:597,_RNvNtNtCsiqbJlScRaBi_22entities_io_operations6export5testss_16test_export_hash
FN:339,_RNvNtNtCsiqbJlScRaBi_22entities_io_operations6export5testss_17test_mfa_creation
FN:357,_RNvNtNtCsiqbJlScRaBi_22entities_io_operations6export5testss_17test_mfa_equality
FN:367,_RNvNtNtCsiqbJlScRaBi_22entities_io_operations6export5testss_20test_export_creation
FN:587,_RNvNtNtCsiqbJlScRaBi_22entities_io_operations6export5testss_20test_export_equality
FN:420,_RNvNtNtCsiqbJlScRaBi_22entities_io_operations6export5testss_21test_export_table_get
FN:387,_RNvNtNtCsiqbJlScRaBi_22entities_io_operations6export5testss_21test_export_table_new
FN:394,_RNvNtNtCsiqbJlScRaBi_22entities_io_operations6export5testss_21test_export_table_put
FN:454,_RNvNtNtCsiqbJlScRaBi_22entities_io_operations6export5testss_22test_export_table_list
FN:527,_RNvNtNtCsiqbJlScRaBi_22entities_io_operations6export5testss_23test_export_table_clear
FN:499,_RNvNtNtCsiqbJlScRaBi_22entities_io_operations6export5testss_24test_export_table_remove
FN:617,_RNvNtNtCsiqbJlScRaBi_22entities_io_operations6export5testss_25test_export_table_default
FN:516,_RNvNtNtCsiqbJlScRaBi_22entities_io_operations6export5testss_26test_export_table_contains
FN:466,_RNvNtNtCsiqbJlScRaBi_22entities_io_operations6export5testss_27test_export_table_list_size
FN:479,_RNvNtNtCsiqbJlScRaBi_22entities_io_operations6export5testss_28test_export_table_table_size
FN:568,_RNvNtNtCsiqbJlScRaBi_22entities_io_operations6export5testss_28test_export_table_with_limit
FN:489,_RNvNtNtCsiqbJlScRaBi_22entities_io_operations6export5testss_29test_export_table_entry_bytes
FN:409,_RNvNtNtCsiqbJlScRaBi_22entities_io_operations6export5testss_31test_export_table_put_duplicate
FN:607,_RNvNtNtCsiqbJlScRaBi_22entities_io_operations6export5testss_33test_export_convenience_functions
FN:437,_RNvNtNtCsiqbJlScRaBi_22entities_io_operations6export5testss_34test_export_table_get_or_make_stub
FN:540,_RNvNtNtCsiqbJlScRaBi_22entities_io_operations6export5testss_35test_export_table_different_arities
FN:555,_RNvNtNtCsiqbJlScRaBi_22entities_io_operations6export5testss_35test_export_table_different_modules
FN:278,_RNCNvMs2_NtCsiqbJlScRaBi_22entities_io_operations6exportNtB7_11ExportTable6remove0B9_
FN:329,_RNvNtNtCsiqbJlScRaBi_22entities_io_operations6export10export_ops20new_table_with_limit
FN:324,_RNvNtNtCsiqbJlScRaBi_22entities_io_operations6export10export_ops9new_table
FN:278,_RNCNvMs2_NtCsc1lb49K8XWc_22entities_io_operations6exportNtB7_11ExportTable6remove0B9_
FN:48,_RNvMNtCsc1lb49K8XWc_22entities_io_operations6exportNtB2_3Mfa3new
FN:57,_RNvMNtCsc1lb49K8XWc_22entities_io_operations6exportNtB2_3Mfa4hash
FN:245,_RNvMs2_NtCsc1lb49K8XWc_22entities_io_operations6exportNtB5_11ExportTable10table_size
FN:143,_RNvMs2_NtCsc1lb49K8XWc_22entities_io_operations6exportNtB5_11ExportTable10with_limit
FN:253,_RNvMs2_NtCsc1lb49K8XWc_22entities_io_operations6exportNtB5_11ExportTable11entry_bytes
FN:219,_RNvMs2_NtCsc1lb49K8XWc_22entities_io_operations6exportNtB5_11ExportTable16get_or_make_stub
FN:161,_RNvMs2_NtCsc1lb49K8XWc_22entities_io_operations6exportNtB5_11ExportTable3get
FN:133,_RNvMs2_NtCsc1lb49K8XWc_22entities_io_operations6exportNtB5_11ExportTable3new
FN:177,_RNvMs2_NtCsc1lb49K8XWc_22entities_io_operations6exportNtB5_11ExportTable3put
FN:228,_RNvMs2_NtCsc1lb49K8XWc_22entities_io_operations6exportNtB5_11ExportTable4list
FN:303,_RNvMs2_NtCsc1lb49K8XWc_22entities_io_operations6exportNtB5_11ExportTable5clear
FN:268,_RNvMs2_NtCsc1lb49K8XWc_22entities_io_operations6exportNtB5_11ExportTable6remove
FN:295,_RNvMs2_NtCsc1lb49K8XWc_22entities_io_operations6exportNtB5_11ExportTable8contains
FN:237,_RNvMs2_NtCsc1lb49K8XWc_22entities_io_operations6exportNtB5_11ExportTable9list_size
FN:78,_RNvMs_NtCsc1lb49K8XWc_22entities_io_operations6exportNtB4_6Export3new
FN:101,_RNvMs_NtCsc1lb49K8XWc_22entities_io_operations6exportNtB4_6Export4hash
FN:96,_RNvMs_NtCsc1lb49K8XWc_22entities_io_operations6exportNtB4_6Export6is_bif
FN:87,_RNvMs_NtCsc1lb49K8XWc_22entities_io_operations6exportNtB4_6Export7new_bif
FN:107,_RNvXs0_NtCsc1lb49K8XWc_22entities_io_operations6exportNtB5_6ExportNtNtCsksJIhyblnkX_4core3cmp9PartialEq2eq
FN:314,_RNvXs3_NtCsc1lb49K8XWc_22entities_io_operations6exportNtB5_11ExportTableNtNtCsksJIhyblnkX_4core7default7Default7default
FNDA:95,_RNvMNtCsiqbJlScRaBi_22entities_io_operations6exportNtB2_3Mfa3new
FNDA:55,_RNvMNtCsiqbJlScRaBi_22entities_io_operations6exportNtB2_3Mfa4hash
FNDA:21,_RNvMs2_NtCsiqbJlScRaBi_22entities_io_operations6exportNtB5_11ExportTable10table_size
FNDA:2,_RNvMs2_NtCsiqbJlScRaBi_22entities_io_operations6exportNtB5_11ExportTable10with_limit
FNDA:2,_RNvMs2_NtCsiqbJlScRaBi_22entities_io_operations6exportNtB5_11ExportTable11entry_bytes
FNDA:2,_RNvMs2_NtCsiqbJlScRaBi_22entities_io_operations6exportNtB5_11ExportTable16get_or_make_stub
FNDA:2,_RNvMs2_NtCsiqbJlScRaBi_22entities_io_operations6exportNtB5_11ExportTable3get
FNDA:16,_RNvMs2_NtCsiqbJlScRaBi_22entities_io_operations6exportNtB5_11ExportTable3new
FNDA:35,_RNvMs2_NtCsiqbJlScRaBi_22entities_io_operations6exportNtB5_11ExportTable3put
FNDA:2,_RNvMs2_NtCsiqbJlScRaBi_22entities_io_operations6exportNtB5_11ExportTable4list
FNDA:1,_RNvMs2_NtCsiqbJlScRaBi_22entities_io_operations6exportNtB5_11ExportTable5clear
FNDA:2,_RNvMs2_NtCsiqbJlScRaBi_22entities_io_operations6exportNtB5_11ExportTable6remove
FNDA:8,_RNvMs2_NtCsiqbJlScRaBi_22entities_io_operations6exportNtB5_11ExportTable8contains
FNDA:4,_RNvMs2_NtCsiqbJlScRaBi_22entities_io_operations6exportNtB5_11ExportTable9list_size
FNDA:40,_RNvMs_NtCsiqbJlScRaBi_22entities_io_operations6exportNtB4_6Export3new
FNDA:4,_RNvMs_NtCsiqbJlScRaBi_22entities_io_operations6exportNtB4_6Export4hash
FNDA:2,_RNvMs_NtCsiqbJlScRaBi_22entities_io_operations6exportNtB4_6Export6is_bif
FNDA:1,_RNvMs_NtCsiqbJlScRaBi_22entities_io_operations6exportNtB4_6Export7new_bif
FNDA:2,_RNvXs0_NtCsiqbJlScRaBi_22entities_io_operations6exportNtB5_6ExportNtNtCsksJIhyblnkX_4core3cmp9PartialEq2eq
FNDA:1,_RNvXs3_NtCsiqbJlScRaBi_22entities_io_operations6exportNtB5_11ExportTableNtNtCsksJIhyblnkX_4core7default7Default7default
FNDA:1,_RNvNtNtCsiqbJlScRaBi_22entities_io_operations6export5testss_13test_mfa_hash
FNDA:1,_RNvNtNtCsiqbJlScRaBi_22entities_io_operations6export5testss_15test_export_bif
FNDA:1,_RNvNtNtCsiqbJlScRaBi_22entities_io_operations6export5testss_16test_export_hash
FNDA:1,_RNvNtNtCsiqbJlScRaBi_22entities_io_operations6export5testss_17test_mfa_creation
FNDA:1,_RNvNtNtCsiqbJlScRaBi_22entities_io_operations6export5testss_17test_mfa_equality
FNDA:1,_RNvNtNtCsiqbJlScRaBi_22entities_io_operations6export5testss_20test_export_creation
FNDA:1,_RNvNtNtCsiqbJlScRaBi_22entities_io_operations6export5testss_20test_export_equality
FNDA:1,_RNvNtNtCsiqbJlScRaBi_22entities_io_operations6export5testss_21test_export_table_get
FNDA:1,_RNvNtNtCsiqbJlScRaBi_22entities_io_operations6export5testss_21test_export_table_new
FNDA:1,_RNvNtNtCsiqbJlScRaBi_22entities_io_operations6export5testss_21test_export_table_put
FNDA:1,_RNvNtNtCsiqbJlScRaBi_22entities_io_operations6export5testss_22test_export_table_list
FNDA:1,_RNvNtNtCsiqbJlScRaBi_22entities_io_operations6export5testss_23test_export_table_clear
FNDA:1,_RNvNtNtCsiqbJlScRaBi_22entities_io_operations6export5testss_24test_export_table_remove
FNDA:1,_RNvNtNtCsiqbJlScRaBi_22entities_io_operations6export5testss_25test_export_table_default
FNDA:1,_RNvNtNtCsiqbJlScRaBi_22entities_io_operations6export5testss_26test_export_table_contains
FNDA:1,_RNvNtNtCsiqbJlScRaBi_22entities_io_operations6export5testss_27test_export_table_list_size
FNDA:1,_RNvNtNtCsiqbJlScRaBi_22entities_io_operations6export5testss_28test_export_table_table_size
FNDA:1,_RNvNtNtCsiqbJlScRaBi_22entities_io_operations6export5testss_28test_export_table_with_limit
FNDA:1,_RNvNtNtCsiqbJlScRaBi_22entities_io_operations6export5testss_29test_export_table_entry_bytes
FNDA:1,_RNvNtNtCsiqbJlScRaBi_22entities_io_operations6export5testss_31test_export_table_put_duplicate
FNDA:1,_RNvNtNtCsiqbJlScRaBi_22entities_io_operations6export5testss_33test_export_convenience_functions
FNDA:1,_RNvNtNtCsiqbJlScRaBi_22entities_io_operations6export5testss_34test_export_table_get_or_make_stub
FNDA:1,_RNvNtNtCsiqbJlScRaBi_22entities_io_operations6export5testss_35test_export_table_different_arities
FNDA:1,_RNvNtNtCsiqbJlScRaBi_22entities_io_operations6export5testss_35test_export_table_different_modules
FNDA:2,_RNCNvMs2_NtCsiqbJlScRaBi_22entities_io_operations6exportNtB7_11ExportTable6remove0B9_
FNDA:1,_RNvNtNtCsiqbJlScRaBi_22entities_io_operations6export10export_ops20new_table_with_limit
FNDA:1,_RNvNtNtCsiqbJlScRaBi_22entities_io_operations6export10export_ops9new_table
FNDA:3,_RNCNvMs2_NtCsc1lb49K8XWc_22entities_io_operations6exportNtB7_11ExportTable6remove0B9_
FNDA:444,_RNvMNtCsc1lb49K8XWc_22entities_io_operations6exportNtB2_3Mfa3new
FNDA:333,_RNvMNtCsc1lb49K8XWc_22entities_io_operations6exportNtB2_3Mfa4hash
FNDA:12,_RNvMs2_NtCsc1lb49K8XWc_22entities_io_operations6exportNtB5_11ExportTable10table_size
FNDA:0,_RNvMs2_NtCsc1lb49K8XWc_22entities_io_operations6exportNtB5_11ExportTable10with_limit
FNDA:3,_RNvMs2_NtCsc1lb49K8XWc_22entities_io_operations6exportNtB5_11ExportTable11entry_bytes
FNDA:2,_RNvMs2_NtCsc1lb49K8XWc_22entities_io_operations6exportNtB5_11ExportTable16get_or_make_stub
FNDA:106,_RNvMs2_NtCsc1lb49K8XWc_22entities_io_operations6exportNtB5_11ExportTable3get
FNDA:8,_RNvMs2_NtCsc1lb49K8XWc_22entities_io_operations6exportNtB5_11ExportTable3new
FNDA:118,_RNvMs2_NtCsc1lb49K8XWc_22entities_io_operations6exportNtB5_11ExportTable3put
FNDA:4,_RNvMs2_NtCsc1lb49K8XWc_22entities_io_operations6exportNtB5_11ExportTable4list
FNDA:1,_RNvMs2_NtCsc1lb49K8XWc_22entities_io_operations6exportNtB5_11ExportTable5clear
FNDA:1,_RNvMs2_NtCsc1lb49K8XWc_22entities_io_operations6exportNtB5_11ExportTable6remove
FNDA:104,_RNvMs2_NtCsc1lb49K8XWc_22entities_io_operations6exportNtB5_11ExportTable8contains
FNDA:1,_RNvMs2_NtCsc1lb49K8XWc_22entities_io_operations6exportNtB5_11ExportTable9list_size
FNDA:115,_RNvMs_NtCsc1lb49K8XWc_22entities_io_operations6exportNtB4_6Export3new
FNDA:4,_RNvMs_NtCsc1lb49K8XWc_22entities_io_operations6exportNtB4_6Export4hash
FNDA:1,_RNvMs_NtCsc1lb49K8XWc_22entities_io_operations6exportNtB4_6Export6is_bif
FNDA:0,_RNvMs_NtCsc1lb49K8XWc_22entities_io_operations6exportNtB4_6Export7new_bif
FNDA:5,_RNvXs0_NtCsc1lb49K8XWc_22entities_io_operations6exportNtB5_6ExportNtNtCsksJIhyblnkX_4core3cmp9PartialEq2eq
FNDA:0,_RNvXs3_NtCsc1lb49K8XWc_22entities_io_operations6exportNtB5_11ExportTableNtNtCsksJIhyblnkX_4core7default7Default7default
FNF:47
FNH:47
DA:48,539
DA:49,539
DA:50,539
DA:51,539
DA:52,539
DA:53,539
DA:54,539
DA:57,388
DA:59,388
DA:60,388
DA:61,388
DA:62,388
DA:78,155
DA:79,155
DA:80,155
DA:81,155
DA:82,155
DA:83,155
DA:84,155
DA:87,1
DA:88,1
DA:89,1
DA:90,1
DA:91,1
DA:92,1
DA:93,1
DA:96,3
DA:97,3
DA:98,3
DA:101,8
DA:102,8
DA:103,8
DA:107,7
DA:108,7
DA:109,7
DA:133,24
DA:134,24
DA:135,24
DA:136,24
DA:137,24
DA:138,24
DA:139,24
DA:140,24
DA:143,2
DA:144,2
DA:145,2
DA:146,2
DA:147,2
DA:148,2
DA:149,2
DA:150,2
DA:161,108
DA:162,108
DA:163,108
DA:164,108
DA:165,108
DA:166,108
DA:177,153
DA:178,153
DA:179,153
DA:183,153
DA:184,153
DA:185,5
DA:186,148
DA:190,148
DA:191,148
DA:192,148
DA:193,148
DA:196,148
DA:198,1
DA:199,147
DA:201,147
DA:202,147
DA:203,147
DA:205,147
DA:206,153
DA:219,4
DA:221,4
DA:222,4
DA:228,6
DA:229,6
DA:230,6
DA:231,6
DA:237,5
DA:238,5
DA:239,5
DA:245,33
DA:246,33
DA:247,33
DA:253,5
DA:256,5
DA:257,5
DA:268,3
DA:269,3
DA:270,3
DA:272,3
DA:273,3
DA:274,3
DA:276,3
DA:278,5
DA:279,2
DA:280,2
DA:282,1
DA:284,3
DA:295,112
DA:296,112
DA:297,112
DA:298,112
DA:299,112
DA:300,112
DA:303,2
DA:304,2
DA:305,2
DA:306,2
DA:307,2
DA:308,2
DA:309,2
DA:310,2
DA:314,1
DA:315,1
DA:316,1
DA:324,1
DA:325,1
DA:326,1
DA:329,1
DA:330,1
DA:331,1
DA:339,1
DA:340,1
DA:341,1
DA:342,1
DA:343,1
DA:344,1
DA:347,1
DA:348,1
DA:349,1
DA:350,1
DA:352,1
DA:353,1
DA:354,1
DA:357,1
DA:358,1
DA:359,1
DA:360,1
DA:362,1
DA:363,1
DA:364,1
DA:367,1
DA:368,1
DA:369,1
DA:370,1
DA:371,1
DA:372,1
DA:373,1
DA:374,1
DA:377,1
DA:378,1
DA:379,1
DA:380,1
DA:381,1
DA:382,1
DA:383,1
DA:384,1
DA:387,1
DA:388,1
DA:389,1
DA:390,1
DA:391,1
DA:394,1
DA:395,1
DA:397,1
DA:398,1
DA:399,1
DA:400,1
DA:401,1
DA:403,1
DA:404,1
DA:405,1
DA:406,1
DA:409,1
DA:410,1
DA:412,1
DA:413,1
DA:415,1
DA:416,1
DA:417,1
DA:420,1
DA:421,1
DA:423,1
DA:425,1
DA:426,1
DA:427,1
DA:428,1
DA:429,1
DA:430,1
DA:432,1
DA:433,1
DA:434,1
DA:437,1
DA:438,1
DA:441,1
DA:442,1
DA:443,1
DA:444,1
DA:445,1
DA:448,1
DA:449,1
DA:450,1
DA:451,1
DA:454,1
DA:455,1
DA:457,1
DA:458,1
DA:459,1
DA:461,1
DA:462,1
DA:463,1
DA:466,1
DA:467,1
DA:469,1
DA:471,1
DA:472,1
DA:474,1
DA:475,1
DA:476,1
DA:479,1
DA:480,1
DA:482,1
DA:484,1
DA:485,1
DA:486,1
DA:489,1
DA:490,1
DA:492,1
DA:494,1
DA:495,1
DA:496,1
DA:499,1
DA:500,1
DA:502,1
DA:503,1
DA:505,1
DA:507,1
DA:508,1
DA:509,1
DA:511,1
DA:512,1
DA:513,1
DA:516,1
DA:517,1
DA:519,1
DA:521,1
DA:522,1
DA:523,1
DA:524,1
DA:527,1
DA:528,1
DA:530,1
DA:531,1
DA:532,1
DA:534,1
DA:535,1
DA:536,1
DA:537,1
DA:540,1
DA:541,1
DA:544,1
DA:545,1
DA:546,1
DA:548,1
DA:549,1
DA:550,1
DA:551,1
DA:552,1
DA:555,1
DA:556,1
DA:559,1
DA:560,1
DA:562,1
DA:563,1
DA:564,1
DA:565,1
DA:568,1
DA:569,1
DA:572,11
DA:573,10
DA:574,10
DA:576,1
DA:580,1
DA:583,1
DA:584,1
DA:587,1
DA:588,1
DA:589,1
DA:590,1
DA:592,1
DA:593,1
DA:594,1
DA:597,1
DA:598,1
DA:599,1
DA:600,1
DA:602,1
DA:603,1
DA:604,1
DA:607,1
DA:609,1
DA:610,1
DA:612,1
DA:613,1
DA:614,1
DA:617,1
DA:618,1
DA:619,1
DA:620,1
BRF:0
BRH:0
LF:316
LH:316
end_of_record
SF:/Volumes/Files_1/iron-beam/rust-conversion/rust/entities/entities_process_port/src/common.rs
FN:162,_RNvNtNtCshym10EYvFR1_21entities_process_port6common5testss_22test_common_element_id
FN:144,_RNvNtNtCshym10EYvFR1_21entities_process_port6common5testss_24test_common_element_refc
FN:137,_RNvNtNtCshym10EYvFR1_21entities_process_port6common5testss_28test_common_element_creation
FN:88,_RNvMs_NtCshym10EYvFR1_21entities_process_port6commonNtB4_21ErtsPTabElementCommon3new
FN:98,_RNvMs_NtCshym10EYvFR1_21entities_process_port6commonNtB4_21ErtsPTabElementCommon6get_id
FN:103,_RNvMs_NtCshym10EYvFR1_21entities_process_port6commonNtB4_21ErtsPTabElementCommon6set_id
FN:115,_RNvMs_NtCshym10EYvFR1_21entities_process_port6commonNtB4_21ErtsPTabElementCommon8dec_refc
FN:108,_RNvMs_NtCshym10EYvFR1_21entities_process_port6commonNtB4_21ErtsPTabElementCommon8inc_refc
FN:121,_RNvMs_NtCshym10EYvFR1_21entities_process_port6commonNtB4_21ErtsPTabElementCommon9read_refc
FN:78,_RNvXNtCshym10EYvFR1_21entities_process_port6commonNtB2_10TraceeInfoNtNtCsksJIhyblnkX_4core7default7Default7default
FNDA:1,_RNvNtNtCshym10EYvFR1_21entities_process_port6common5testss_22test_common_element_id
FNDA:1,_RNvNtNtCshym10EYvFR1_21entities_process_port6common5testss_24test_common_element_refc
FNDA:1,_RNvNtNtCshym10EYvFR1_21entities_process_port6common5testss_28test_common_element_creation
FNDA:9,_RNvMs_NtCshym10EYvFR1_21entities_process_port6commonNtB4_21ErtsPTabElementCommon3new
FNDA:5,_RNvMs_NtCshym10EYvFR1_21entities_process_port6commonNtB4_21ErtsPTabElementCommon6get_id
FNDA:1,_RNvMs_NtCshym10EYvFR1_21entities_process_port6commonNtB4_21ErtsPTabElementCommon6set_id
FNDA:2,_RNvMs_NtCshym10EYvFR1_21entities_process_port6commonNtB4_21ErtsPTabElementCommon8dec_refc
FNDA:2,_RNvMs_NtCshym10EYvFR1_21entities_process_port6commonNtB4_21ErtsPTabElementCommon8inc_refc
FNDA:4,_RNvMs_NtCshym10EYvFR1_21entities_process_port6commonNtB4_21ErtsPTabElementCommon9read_refc
FNDA:9,_RNvXNtCshym10EYvFR1_21entities_process_port6commonNtB2_10TraceeInfoNtNtCsksJIhyblnkX_4core7default7Default7default
FNF:10
FNH:10
DA:78,9
DA:79,9
DA:80,9
DA:81,9
DA:82,9
DA:83,9
DA:88,9
DA:89,9
DA:90,9
DA:91,9
DA:92,9
DA:93,9
DA:94,9
DA:95,9
DA:98,5
DA:99,5
DA:100,5
DA:103,1
DA:104,1
DA:105,1
DA:108,2
DA:109,2
DA:110,2
DA:115,2
DA:116,2
DA:117,2
DA:118,2
DA:121,4
DA:122,4
DA:123,4
DA:137,1
DA:138,1
DA:139,1
DA:140,1
DA:141,1
DA:144,1
DA:145,1
DA:148,1
DA:149,1
DA:150,1
DA:153,1
DA:154,1
DA:157,1
DA:158,1
DA:159,1
DA:162,1
DA:163,1
DA:164,1
DA:166,1
DA:167,1
DA:168,1
BRF:0
BRH:0
LF:51
LH:51
end_of_record
SF:/Volumes/Files_1/iron-beam/rust-conversion/rust/entities/entities_process_port/src/port.rs
FN:140,_RNvMNtCshym10EYvFR1_21entities_process_port4portNtB2_4Port9set_state
FN:259,_RNvMs1_NtCshym10EYvFR1_21entities_process_port4portNtB5_15PortStatusFlags6is_set
FN:288,_RNvMs2_NtCshym10EYvFR1_21entities_process_port4portNtB5_9PortFlags10from_state
FN:200,_RNvMs_NtCshym10EYvFR1_21entities_process_port4portNtB4_9PortState13has_binary_io
FN:205,_RNvMs_NtCshym10EYvFR1_21entities_process_port4portNtB4_9PortState14has_linebuf_io
FN:180,_RNvMs_NtCshym10EYvFR1_21entities_process_port4portNtB4_9PortState4bits
FN:211,_RNvXs0_NtCshym10EYvFR1_21entities_process_port4portNtB5_9PortStateNtNtCsksJIhyblnkX_4core7default7Default7default
FN:298,_RNvXs3_NtCshym10EYvFR1_21entities_process_port4portNtB5_9PortFlagsNtNtCsksJIhyblnkX_4core7default7Default7default
FN:334,_RNvNtNtCshym10EYvFR1_21entities_process_port4port5testss_14test_port_data
FN:351,_RNvNtNtCshym10EYvFR1_21entities_process_port4port5testss_15test_port_flags
FN:316,_RNvNtNtCshym10EYvFR1_21entities_process_port4port5testss_15test_port_state
FN:308,_RNvNtNtCshym10EYvFR1_21entities_process_port4port5testss_18test_port_creation
FN:325,_RNvNtNtCshym10EYvFR1_21entities_process_port4port5testss_19test_port_connected
FN:343,_RNvNtNtCshym10EYvFR1_21entities_process_port4port5testss_22test_port_status_flags
FN:145,_RNvMNtCshym10EYvFR1_21entities_process_port4portNtB2_4Port13get_connected
FN:150,_RNvMNtCshym10EYvFR1_21entities_process_port4portNtB2_4Port13set_connected
FN:106,_RNvMNtCshym10EYvFR1_21entities_process_port4portNtB2_4Port3new
FN:130,_RNvMNtCshym10EYvFR1_21entities_process_port4portNtB2_4Port6get_id
FN:155,_RNvMNtCshym10EYvFR1_21entities_process_port4portNtB2_4Port8get_data
FN:160,_RNvMNtCshym10EYvFR1_21entities_process_port4portNtB2_4Port8set_data
FN:135,_RNvMNtCshym10EYvFR1_21entities_process_port4portNtB2_4Port9get_state
FN:254,_RNvMs1_NtCshym10EYvFR1_21entities_process_port4portNtB5_15PortStatusFlags4bits
FN:279,_RNvMs2_NtCshym10EYvFR1_21entities_process_port4portNtB5_9PortFlags3new
FN:195,_RNvMs_NtCshym10EYvFR1_21entities_process_port4portNtB4_9PortState10is_closing
FN:190,_RNvMs_NtCshym10EYvFR1_21entities_process_port4portNtB4_9PortState10is_exiting
FN:185,_RNvMs_NtCshym10EYvFR1_21entities_process_port4portNtB4_9PortState12is_connected
FN:175,_RNvMs_NtCshym10EYvFR1_21entities_process_port4portNtB4_9PortState9from_bits
FNDA:0,_RNvMNtCshym10EYvFR1_21entities_process_port4portNtB2_4Port9set_state
FNDA:0,_RNvMs1_NtCshym10EYvFR1_21entities_process_port4portNtB5_15PortStatusFlags6is_set
FNDA:0,_RNvMs2_NtCshym10EYvFR1_21entities_process_port4portNtB5_9PortFlags10from_state
FNDA:0,_RNvMs_NtCshym10EYvFR1_21entities_process_port4portNtB4_9PortState13has_binary_io
FNDA:0,_RNvMs_NtCshym10EYvFR1_21entities_process_port4portNtB4_9PortState14has_linebuf_io
FNDA:0,_RNvMs_NtCshym10EYvFR1_21entities_process_port4portNtB4_9PortState4bits
FNDA:0,_RNvXs0_NtCshym10EYvFR1_21entities_process_port4portNtB5_9PortStateNtNtCsksJIhyblnkX_4core7default7Default7default
FNDA:0,_RNvXs3_NtCshym10EYvFR1_21entities_process_port4portNtB5_9PortFlagsNtNtCsksJIhyblnkX_4core7default7Default7default
FNDA:1,_RNvNtNtCshym10EYvFR1_21entities_process_port4port5testss_14test_port_data
FNDA:1,_RNvNtNtCshym10EYvFR1_21entities_process_port4port5testss_15test_port_flags
FNDA:1,_RNvNtNtCshym10EYvFR1_21entities_process_port4port5testss_15test_port_state
FNDA:1,_RNvNtNtCshym10EYvFR1_21entities_process_port4port5testss_18test_port_creation
FNDA:1,_RNvNtNtCshym10EYvFR1_21entities_process_port4port5testss_19test_port_connected
FNDA:1,_RNvNtNtCshym10EYvFR1_21entities_process_port4port5testss_22test_port_status_flags
FNDA:2,_RNvMNtCshym10EYvFR1_21entities_process_port4portNtB2_4Port13get_connected
FNDA:1,_RNvMNtCshym10EYvFR1_21entities_process_port4portNtB2_4Port13set_connected
FNDA:4,_RNvMNtCshym10EYvFR1_21entities_process_port4portNtB2_4Port3new
FNDA:1,_RNvMNtCshym10EYvFR1_21entities_process_port4portNtB2_4Port6get_id
FNDA:2,_RNvMNtCshym10EYvFR1_21entities_process_port4portNtB2_4Port8get_data
FNDA:1,_RNvMNtCshym10EYvFR1_21entities_process_port4portNtB2_4Port8set_data
FNDA:1,_RNvMNtCshym10EYvFR1_21entities_process_port4portNtB2_4Port9get_state
FNDA:7,_RNvMs1_NtCshym10EYvFR1_21entities_process_port4portNtB5_15PortStatusFlags4bits
FNDA:1,_RNvMs2_NtCshym10EYvFR1_21entities_process_port4portNtB5_9PortFlags3new
FNDA:1,_RNvMs_NtCshym10EYvFR1_21entities_process_port4portNtB4_9PortState10is_closing
FNDA:1,_RNvMs_NtCshym10EYvFR1_21entities_process_port4portNtB4_9PortState10is_exiting
FNDA:1,_RNvMs_NtCshym10EYvFR1_21entities_process_port4portNtB4_9PortState12is_connected
FNDA:1,_RNvMs_NtCshym10EYvFR1_21entities_process_port4portNtB4_9PortState9from_bits
FNF:27
FNH:19
DA:106,4
DA:107,4
DA:108,4
DA:109,4
DA:110,4
DA:111,4
DA:112,4
DA:113,4
DA:114,4
DA:115,4
DA:116,4
DA:117,4
DA:118,4
DA:119,4
DA:120,4
DA:121,4
DA:122,4
DA:123,4
DA:124,4
DA:125,4
DA:126,4
DA:127,4
DA:130,1
DA:131,1
DA:132,1
DA:135,1
DA:136,1
DA:137,1
DA:140,0
DA:141,0
DA:142,0
DA:145,2
DA:146,2
DA:147,2
DA:150,1
DA:151,1
DA:152,1
DA:155,2
DA:156,2
DA:157,2
DA:160,1
DA:161,1
DA:162,1
DA:175,1
DA:176,1
DA:177,1
DA:180,0
DA:181,0
DA:182,0
DA:185,1
DA:186,1
DA:187,1
DA:190,1
DA:191,1
DA:192,1
DA:195,1
DA:196,1
DA:197,1
DA:200,0
DA:201,0
DA:202,0
DA:205,0
DA:206,0
DA:207,0
DA:211,0
DA:212,0
DA:213,0
DA:254,7
DA:255,7
DA:256,7
DA:259,0
DA:260,0
DA:261,0
DA:279,1
DA:280,1
DA:281,1
DA:282,1
DA:283,1
DA:284,1
DA:285,1
DA:288,0
DA:289,0
DA:290,0
DA:291,0
DA:292,0
DA:293,0
DA:294,0
DA:298,0
DA:299,0
DA:300,0
DA:308,1
DA:309,1
DA:310,1
DA:311,1
DA:312,1
DA:313,1
DA:316,1
DA:317,1
DA:318,1
DA:319,1
DA:320,1
DA:321,1
DA:322,1
DA:325,1
DA:326,1
DA:327,1
DA:329,1
DA:330,1
DA:331,1
DA:334,1
DA:335,1
DA:336,1
DA:338,1
DA:339,1
DA:340,1
DA:343,1
DA:344,1
DA:345,1
DA:346,1
DA:347,1
DA:348,1
DA:351,1
DA:352,1
DA:353,1
DA:354,1
DA:355,1
DA:356,1
BRF:0
BRH:0
LF:127
LH:99
end_of_record
SF:/Volumes/Files_1/iron-beam/rust-conversion/rust/entities/entities_process_port/src/process.rs
FN:302,_RNvMs2_NtCshym10EYvFR1_21entities_process_port7processNtB5_12ProcessState4bits
FN:246,_RNvMs_NtCshym10EYvFR1_21entities_process_port7processNtB4_7Process9set_state
FN:282,_RNvXs1_NtCshym10EYvFR1_21entities_process_port7processNtB5_12ProcessFlagsNtNtCsksJIhyblnkX_4core7default7Default7default
FN:318,_RNvXs3_NtCshym10EYvFR1_21entities_process_port7processNtB5_12ProcessStateNtNtCsksJIhyblnkX_4core7default7Default7default
FN:264,_RNvMs0_NtCshym10EYvFR1_21entities_process_port7processNtB5_12ProcessFlags3new
FN:272,_RNvMs0_NtCshym10EYvFR1_21entities_process_port7processNtB5_12ProcessFlags4bits
FN:307,_RNvMs2_NtCshym10EYvFR1_21entities_process_port7processNtB5_12ProcessState10is_exiting
FN:312,_RNvMs2_NtCshym10EYvFR1_21entities_process_port7processNtB5_12ProcessState12is_suspended
FN:297,_RNvMs2_NtCshym10EYvFR1_21entities_process_port7processNtB5_12ProcessState9from_bits
FN:182,_RNvMs_NtCshym10EYvFR1_21entities_process_port7processNtB4_7Process3new
FN:236,_RNvMs_NtCshym10EYvFR1_21entities_process_port7processNtB4_7Process6get_id
FN:241,_RNvMs_NtCshym10EYvFR1_21entities_process_port7processNtB4_7Process9get_state
FN:172,_RNvXNtCshym10EYvFR1_21entities_process_port7processNtB2_7OffHeapNtNtCsksJIhyblnkX_4core7default7Default7default
FN:364,_RNvNtNtCshym10EYvFR1_21entities_process_port7process5testss_18test_process_flags
FN:356,_RNvNtNtCshym10EYvFR1_21entities_process_port7process5testss_18test_process_state
FN:348,_RNvNtNtCshym10EYvFR1_21entities_process_port7process5testss_21test_process_creation
FN:374,_RNvNtNtCshym10EYvFR1_21entities_process_port7process5testss_21test_process_priority
FNDA:0,_RNvMs2_NtCshym10EYvFR1_21entities_process_port7processNtB5_12ProcessState4bits
FNDA:0,_RNvMs_NtCshym10EYvFR1_21entities_process_port7processNtB4_7Process9set_state
FNDA:0,_RNvXs1_NtCshym10EYvFR1_21entities_process_port7processNtB5_12ProcessFlagsNtNtCsksJIhyblnkX_4core7default7Default7default
FNDA:0,_RNvXs3_NtCshym10EYvFR1_21entities_process_port7processNtB5_12ProcessStateNtNtCsksJIhyblnkX_4core7default7Default7default
FNDA:1,_RNvMs0_NtCshym10EYvFR1_21entities_process_port7processNtB5_12ProcessFlags3new
FNDA:1,_RNvMs0_NtCshym10EYvFR1_21entities_process_port7processNtB5_12ProcessFlags4bits
FNDA:1,_RNvMs2_NtCshym10EYvFR1_21entities_process_port7processNtB5_12ProcessState10is_exiting
FNDA:1,_RNvMs2_NtCshym10EYvFR1_21entities_process_port7processNtB5_12ProcessState12is_suspended
FNDA:1,_RNvMs2_NtCshym10EYvFR1_21entities_process_port7processNtB5_12ProcessState9from_bits
FNDA:2,_RNvMs_NtCshym10EYvFR1_21entities_process_port7processNtB4_7Process3new
FNDA:1,_RNvMs_NtCshym10EYvFR1_21entities_process_port7processNtB4_7Process6get_id
FNDA:1,_RNvMs_NtCshym10EYvFR1_21entities_process_port7processNtB4_7Process9get_state
FNDA:2,_RNvXNtCshym10EYvFR1_21entities_process_port7processNtB2_7OffHeapNtNtCsksJIhyblnkX_4core7default7Default7default
FNDA:1,_RNvNtNtCshym10EYvFR1_21entities_process_port7process5testss_18test_process_flags
FNDA:1,_RNvNtNtCshym10EYvFR1_21entities_process_port7process5testss_18test_process_state
FNDA:1,_RNvNtNtCshym10EYvFR1_21entities_process_port7process5testss_21test_process_creation
FNDA:1,_RNvNtNtCshym10EYvFR1_21entities_process_port7process5testss_21test_process_priority
FNF:17
FNH:13
DA:172,2
DA:173,2
DA:174,2
DA:175,2
DA:176,2
DA:177,2
DA:182,2
DA:183,2
DA:184,2
DA:185,2
DA:186,2
DA:187,2
DA:188,2
DA:189,2
DA:190,2
DA:191,2
DA:192,2
DA:193,2
DA:194,2
DA:195,2
DA:196,2
DA:197,2
DA:198,2
DA:199,2
DA:200,2
DA:201,2
DA:202,2
DA:203,2
DA:204,2
DA:205,2
DA:206,2
DA:207,2
DA:208,2
DA:209,2
DA:210,2
DA:211,2
DA:212,2
DA:213,2
DA:214,2
DA:215,2
DA:216,2
DA:217,2
DA:218,2
DA:219,2
DA:220,2
DA:221,2
DA:222,2
DA:223,2
DA:224,2
DA:225,2
DA:226,2
DA:227,2
DA:228,2
DA:229,2
DA:230,2
DA:231,2
DA:232,2
DA:233,2
DA:236,1
DA:237,1
DA:238,1
DA:241,1
DA:242,1
DA:243,1
DA:246,0
DA:247,0
DA:248,0
DA:264,1
DA:265,1
DA:266,1
DA:267,1
DA:268,1
DA:269,1
DA:272,1
DA:273,1
DA:274,1
DA:275,1
DA:276,1
DA:277,1
DA:278,1
DA:282,0
DA:283,0
DA:284,0
DA:297,1
DA:298,1
DA:299,1
DA:302,0
DA:303,0
DA:304,0
DA:307,1
DA:308,1
DA:309,1
DA:312,1
DA:313,1
DA:314,1
DA:318,0
DA:319,0
DA:320,0
DA:348,1
DA:349,1
DA:350,1
DA:351,1
DA:352,1
DA:353,1
DA:356,1
DA:357,1
DA:358,1
DA:359,1
DA:360,1
DA:361,1
DA:364,1
DA:365,1
DA:366,1
DA:368,1
DA:369,1
DA:370,1
DA:371,1
DA:374,1
DA:375,1
DA:376,1
DA:377,1
DA:378,1
DA:379,1
DA:380,1
BRF:0
BRH:0
LF:124
LH:112
end_of_record
SF:/Volumes/Files_1/iron-beam/rust-conversion/rust/entities/entities_system_integration_common/src/mmap.rs
FN:59,_RNvMNtCseZuh0RY7Z2k_34entities_system_integration_common4mmapNtB2_9MemoryMap3len
FN:54,_RNvMNtCseZuh0RY7Z2k_34entities_system_integration_common4mmapNtB2_9MemoryMap4data
FN:46,_RINvMNtCseZuh0RY7Z2k_34entities_system_integration_common4mmapNtB3_9MemoryMap8map_fileRNtNtCsfE6eI1iGeYh_3std4path7PathBufEB5_
FN:72,_RNvNtNtCseZuh0RY7Z2k_34entities_system_integration_common4mmap5testss_20test_memory_map_file
FN:46,_RINvMNtCs6BCZPgiVJqb_34entities_system_integration_common4mmapNtB3_9MemoryMap8map_fileRNtNtCsfE6eI1iGeYh_3std4path7PathBufECsXHo2yvpbY4_16integration_test
FN:59,_RNvMNtCs6BCZPgiVJqb_34entities_system_integration_common4mmapNtB2_9MemoryMap3len
FN:54,_RNvMNtCs6BCZPgiVJqb_34entities_system_integration_common4mmapNtB2_9MemoryMap4data
FN:46,_RINvMNtCs6BCZPgiVJqb_34entities_system_integration_common4mmapNtB3_9MemoryMap8map_filepEB5_
FNDA:1,_RNvMNtCseZuh0RY7Z2k_34entities_system_integration_common4mmapNtB2_9MemoryMap3len
FNDA:1,_RNvMNtCseZuh0RY7Z2k_34entities_system_integration_common4mmapNtB2_9MemoryMap4data
FNDA:1,_RINvMNtCseZuh0RY7Z2k_34entities_system_integration_common4mmapNtB3_9MemoryMap8map_fileRNtNtCsfE6eI1iGeYh_3std4path7PathBufEB5_
FNDA:1,_RNvNtNtCseZuh0RY7Z2k_34entities_system_integration_common4mmap5testss_20test_memory_map_file
FNDA:8,_RINvMNtCs6BCZPgiVJqb_34entities_system_integration_common4mmapNtB3_9MemoryMap8map_fileRNtNtCsfE6eI1iGeYh_3std4path7PathBufECsXHo2yvpbY4_16integration_test
FNDA:16,_RNvMNtCs6BCZPgiVJqb_34entities_system_integration_common4mmapNtB2_9MemoryMap3len
FNDA:21,_RNvMNtCs6BCZPgiVJqb_34entities_system_integration_common4mmapNtB2_9MemoryMap4data
FNDA:0,_RINvMNtCs6BCZPgiVJqb_34entities_system_integration_common4mmapNtB3_9MemoryMap8map_filepEB5_
FNF:4
FNH:4
DA:46,9
DA:47,9
DA:48,8
DA:49,8
DA:50,8
DA:51,9
DA:54,22
DA:55,22
DA:56,22
DA:59,17
DA:60,17
DA:61,17
DA:72,1
DA:74,1
DA:75,1
DA:77,1
DA:79,1
DA:80,1
DA:81,1
DA:84,1
DA:85,1
BRF:0
BRH:0
LF:21
LH:21
end_of_record
SF:/Volumes/Files_1/iron-beam/rust-conversion/rust/entities/entities_system_integration_win32/src/lib.rs
FN:37,_RNvCs95iOxUU0LCx_33entities_system_integration_win3212windows_only
FNDA:0,_RNvCs95iOxUU0LCx_33entities_system_integration_win3212windows_only
FNF:1
FNH:0
DA:37,0
DA:39,0
BRF:0
BRH:0
LF:2
LH:0
end_of_record
SF:/Volumes/Files_1/iron-beam/rust-conversion/rust/entities/entities_utilities/src/big.rs
FN:1915,_RNvMNtCs5EmJYJkkoQf_18entities_utilities3bigNtB2_9BigNumber10as_integer
FN:1279,_RNvMNtCs5EmJYJkkoQf_18entities_utilities3bigNtB2_9BigNumber10plus_small
FN:777,_RNvMNtCs5EmJYJkkoQf_18entities_utilities3bigNtB2_9BigNumber11is_positive
FN:1978,_RNvMNtCs5EmJYJkkoQf_18entities_utilities3bigNtB2_9BigNumber12from_integer
FN:1802,_RNvMNtCs5EmJYJkkoQf_18entities_utilities3bigNtB2_9BigNumber14to_string_base
FN:1080,_RNvMNtCs5EmJYJkkoQf_18entities_utilities3bigNtB2_9BigNumber3div
FN:1145,_RNvMNtCs5EmJYJkkoQf_18entities_utilities3bigNtB2_9BigNumber3rem
FN:1659,_RNvMNtCs5EmJYJkkoQf_18entities_utilities3bigNtB2_9BigNumber4comp
FN:893,_RNvMNtCs5EmJYJkkoQf_18entities_utilities3bigNtB2_9BigNumber4plus
FN:1404,_RNvMNtCs5EmJYJkkoQf_18entities_utilities3bigNtB2_9BigNumber5bitor
FN:954,_RNvMNtCs5EmJYJkkoQf_18entities_utilities3bigNtB2_9BigNumber5minus
FN:1017,_RNvMNtCs5EmJYJkkoQf_18entities_utilities3bigNtB2_9BigNumber5times
FN:1723,_RNvMNtCs5EmJYJkkoQf_18entities_utilities3bigNtB2_9BigNumber5ucomp
FN:1342,_RNvMNtCs5EmJYJkkoQf_18entities_utilities3bigNtB2_9BigNumber6bitand
FN:1528,_RNvMNtCs5EmJYJkkoQf_18entities_utilities3bigNtB2_9BigNumber6bitnot
FN:1471,_RNvMNtCs5EmJYJkkoQf_18entities_utilities3bigNtB2_9BigNumber6bitxor
FN:1590,_RNvMNtCs5EmJYJkkoQf_18entities_utilities3bigNtB2_9BigNumber6lshift
FN:597,_RNvMNtCs5EmJYJkkoQf_18entities_utilities3bigNtB2_9BigNumber6to_f64
FN:728,_RNvMNtCs5EmJYJkkoQf_18entities_utilities3bigNtB2_9BigNumber6to_i64
FN:661,_RNvMNtCs5EmJYJkkoQf_18entities_utilities3bigNtB2_9BigNumber6to_u32
FN:833,_RNvMNtCs5EmJYJkkoQf_18entities_utilities3bigNtB2_9BigNumber7is_zero
FN:1217,_RNvMNtCs5EmJYJkkoQf_18entities_utilities3bigNtB2_9BigNumber7mul_add
FN:472,_RNvMNtCs5EmJYJkkoQf_18entities_utilities3bigNtB2_9BigNumber8from_f64
FN:399,_RNvMNtCs5EmJYJkkoQf_18entities_utilities3bigNtB2_9BigNumber8from_i32
FN:226,_RNvMNtCs5EmJYJkkoQf_18entities_utilities3bigNtB2_9BigNumber8from_i64
FN:342,_RNvMNtCs5EmJYJkkoQf_18entities_utilities3bigNtB2_9BigNumber8from_u32
FN:286,_RNvMNtCs5EmJYJkkoQf_18entities_utilities3bigNtB2_9BigNumber8from_u64
FN:1990,_RNvXs0_NtCs5EmJYJkkoQf_18entities_utilities3bigNtB5_9BigNumberINtNtCsksJIhyblnkX_4core7convert4FromyE4from
FN:1996,_RNvXs1_NtCs5EmJYJkkoQf_18entities_utilities3bigNtB5_9BigNumberINtNtCsksJIhyblnkX_4core7convert4FromlE4from
FN:2002,_RNvXs2_NtCs5EmJYJkkoQf_18entities_utilities3bigNtB5_9BigNumberINtNtCsksJIhyblnkX_4core7convert4FrommE4from
FN:1984,_RNvXs_NtCs5EmJYJkkoQf_18entities_utilities3bigNtB4_9BigNumberINtNtCsksJIhyblnkX_4core7convert4FromxE4from
FN:2154,_RNvNtNtCs5EmJYJkkoQf_18entities_utilities3big5testss_12test_mul_add
FN:2121,_RNvNtNtCs5EmJYJkkoQf_18entities_utilities3big5testss_15test_comparison
FN:2169,_RNvNtNtCs5EmJYJkkoQf_18entities_utilities3big5testss_15test_conversion
FN:2302,_RNvNtNtCs5EmJYJkkoQf_18entities_utilities3big5testss_15test_edge_cases
FN:2163,_RNvNtNtCs5EmJYJkkoQf_18entities_utilities3big5testss_15test_plus_small
FN:2283,_RNvNtNtCs5EmJYJkkoQf_18entities_utilities3big5testss_18test_large_numbers
FN:2099,_RNvNtNtCs5EmJYJkkoQf_18entities_utilities3big5testss_21test_shift_operations
FN:2225,_RNvNtNtCs5EmJYJkkoQf_18entities_utilities3big5testss_22test_string_conversion
FN:2073,_RNvNtNtCs5EmJYJkkoQf_18entities_utilities3big5testss_23test_bitwise_operations
FN:2012,_RNvNtNtCs5EmJYJkkoQf_18entities_utilities3big5testss_24test_big_number_creation
FN:2144,_RNvNtNtCs5EmJYJkkoQf_18entities_utilities3big5testss_24test_negative_operations
FN:2051,_RNvNtNtCs5EmJYJkkoQf_18entities_utilities3big5testss_26test_arithmetic_operations
FN:2277,_RNvNtNtCs5EmJYJkkoQf_18entities_utilities3big5testss_45test_string_conversion_invalid_base_too_large
FN:2270,_RNvNtNtCs5EmJYJkkoQf_18entities_utilities3big5testss_45test_string_conversion_invalid_base_too_small
FN:1915,_RNvMNtCsj0ER6oCKdWz_18entities_utilities3bigNtB2_9BigNumber10as_integer
FN:1279,_RNvMNtCsj0ER6oCKdWz_18entities_utilities3bigNtB2_9BigNumber10plus_small
FN:777,_RNvMNtCsj0ER6oCKdWz_18entities_utilities3bigNtB2_9BigNumber11is_positive
FN:1978,_RNvMNtCsj0ER6oCKdWz_18entities_utilities3bigNtB2_9BigNumber12from_integer
FN:1802,_RNvMNtCsj0ER6oCKdWz_18entities_utilities3bigNtB2_9BigNumber14to_string_base
FN:1080,_RNvMNtCsj0ER6oCKdWz_18entities_utilities3bigNtB2_9BigNumber3div
FN:1145,_RNvMNtCsj0ER6oCKdWz_18entities_utilities3bigNtB2_9BigNumber3rem
FN:1659,_RNvMNtCsj0ER6oCKdWz_18entities_utilities3bigNtB2_9BigNumber4comp
FN:893,_RNvMNtCsj0ER6oCKdWz_18entities_utilities3bigNtB2_9BigNumber4plus
FN:1404,_RNvMNtCsj0ER6oCKdWz_18entities_utilities3bigNtB2_9BigNumber5bitor
FN:954,_RNvMNtCsj0ER6oCKdWz_18entities_utilities3bigNtB2_9BigNumber5minus
FN:1017,_RNvMNtCsj0ER6oCKdWz_18entities_utilities3bigNtB2_9BigNumber5times
FN:1723,_RNvMNtCsj0ER6oCKdWz_18entities_utilities3bigNtB2_9BigNumber5ucomp
FN:1342,_RNvMNtCsj0ER6oCKdWz_18entities_utilities3bigNtB2_9BigNumber6bitand
FN:1528,_RNvMNtCsj0ER6oCKdWz_18entities_utilities3bigNtB2_9BigNumber6bitnot
FN:1471,_RNvMNtCsj0ER6oCKdWz_18entities_utilities3bigNtB2_9BigNumber6bitxor
FN:1590,_RNvMNtCsj0ER6oCKdWz_18entities_utilities3bigNtB2_9BigNumber6lshift
FN:597,_RNvMNtCsj0ER6oCKdWz_18entities_utilities3bigNtB2_9BigNumber6to_f64
FN:728,_RNvMNtCsj0ER6oCKdWz_18entities_utilities3bigNtB2_9BigNumber6to_i64
FN:661,_RNvMNtCsj0ER6oCKdWz_18entities_utilities3bigNtB2_9BigNumber6to_u32
FN:833,_RNvMNtCsj0ER6oCKdWz_18entities_utilities3bigNtB2_9BigNumber7is_zero
FN:1217,_RNvMNtCsj0ER6oCKdWz_18entities_utilities3bigNtB2_9BigNumber7mul_add
FN:472,_RNvMNtCsj0ER6oCKdWz_18entities_utilities3bigNtB2_9BigNumber8from_f64
FN:399,_RNvMNtCsj0ER6oCKdWz_18entities_utilities3bigNtB2_9BigNumber8from_i32
FN:226,_RNvMNtCsj0ER6oCKdWz_18entities_utilities3bigNtB2_9BigNumber8from_i64
FN:342,_RNvMNtCsj0ER6oCKdWz_18entities_utilities3bigNtB2_9BigNumber8from_u32
FN:286,_RNvMNtCsj0ER6oCKdWz_18entities_utilities3bigNtB2_9BigNumber8from_u64
FN:1990,_RNvXs0_NtCsj0ER6oCKdWz_18entities_utilities3bigNtB5_9BigNumberINtNtCsksJIhyblnkX_4core7convert4FromyE4from
FN:1996,_RNvXs1_NtCsj0ER6oCKdWz_18entities_utilities3bigNtB5_9BigNumberINtNtCsksJIhyblnkX_4core7convert4FromlE4from
FN:2002,_RNvXs2_NtCsj0ER6oCKdWz_18entities_utilities3bigNtB5_9BigNumberINtNtCsksJIhyblnkX_4core7convert4FrommE4from
FN:1984,_RNvXs_NtCsj0ER6oCKdWz_18entities_utilities3bigNtB4_9BigNumberINtNtCsksJIhyblnkX_4core7convert4FromxE4from
FNDA:1,_RNvMNtCs5EmJYJkkoQf_18entities_utilities3bigNtB2_9BigNumber10as_integer
FNDA:1,_RNvMNtCs5EmJYJkkoQf_18entities_utilities3bigNtB2_9BigNumber10plus_small
FNDA:5,_RNvMNtCs5EmJYJkkoQf_18entities_utilities3bigNtB2_9BigNumber11is_positive
FNDA:1,_RNvMNtCs5EmJYJkkoQf_18entities_utilities3bigNtB2_9BigNumber12from_integer
FNDA:21,_RNvMNtCs5EmJYJkkoQf_18entities_utilities3bigNtB2_9BigNumber14to_string_base
FNDA:2,_RNvMNtCs5EmJYJkkoQf_18entities_utilities3bigNtB2_9BigNumber3div
FNDA:3,_RNvMNtCs5EmJYJkkoQf_18entities_utilities3bigNtB2_9BigNumber3rem
FNDA:5,_RNvMNtCs5EmJYJkkoQf_18entities_utilities3bigNtB2_9BigNumber4comp
FNDA:3,_RNvMNtCs5EmJYJkkoQf_18entities_utilities3bigNtB2_9BigNumber4plus
FNDA:1,_RNvMNtCs5EmJYJkkoQf_18entities_utilities3bigNtB2_9BigNumber5bitor
FNDA:2,_RNvMNtCs5EmJYJkkoQf_18entities_utilities3bigNtB2_9BigNumber5minus
FNDA:2,_RNvMNtCs5EmJYJkkoQf_18entities_utilities3bigNtB2_9BigNumber5times
FNDA:2,_RNvMNtCs5EmJYJkkoQf_18entities_utilities3bigNtB2_9BigNumber5ucomp
FNDA:1,_RNvMNtCs5EmJYJkkoQf_18entities_utilities3bigNtB2_9BigNumber6bitand
FNDA:3,_RNvMNtCs5EmJYJkkoQf_18entities_utilities3bigNtB2_9BigNumber6bitnot
FNDA:1,_RNvMNtCs5EmJYJkkoQf_18entities_utilities3bigNtB2_9BigNumber6bitxor
FNDA:7,_RNvMNtCs5EmJYJkkoQf_18entities_utilities3bigNtB2_9BigNumber6lshift
FNDA:4,_RNvMNtCs5EmJYJkkoQf_18entities_utilities3bigNtB2_9BigNumber6to_f64
FNDA:41,_RNvMNtCs5EmJYJkkoQf_18entities_utilities3bigNtB2_9BigNumber6to_i64
FNDA:7,_RNvMNtCs5EmJYJkkoQf_18entities_utilities3bigNtB2_9BigNumber6to_u32
FNDA:7,_RNvMNtCs5EmJYJkkoQf_18entities_utilities3bigNtB2_9BigNumber7is_zero
FNDA:1,_RNvMNtCs5EmJYJkkoQf_18entities_utilities3bigNtB2_9BigNumber7mul_add
FNDA:10,_RNvMNtCs5EmJYJkkoQf_18entities_utilities3bigNtB2_9BigNumber8from_f64
FNDA:3,_RNvMNtCs5EmJYJkkoQf_18entities_utilities3bigNtB2_9BigNumber8from_i32
FNDA:49,_RNvMNtCs5EmJYJkkoQf_18entities_utilities3bigNtB2_9BigNumber8from_i64
FNDA:2,_RNvMNtCs5EmJYJkkoQf_18entities_utilities3bigNtB2_9BigNumber8from_u32
FNDA:7,_RNvMNtCs5EmJYJkkoQf_18entities_utilities3bigNtB2_9BigNumber8from_u64
FNDA:1,_RNvXs0_NtCs5EmJYJkkoQf_18entities_utilities3bigNtB5_9BigNumberINtNtCsksJIhyblnkX_4core7convert4FromyE4from
FNDA:1,_RNvXs1_NtCs5EmJYJkkoQf_18entities_utilities3bigNtB5_9BigNumberINtNtCsksJIhyblnkX_4core7convert4FromlE4from
FNDA:1,_RNvXs2_NtCs5EmJYJkkoQf_18entities_utilities3bigNtB5_9BigNumberINtNtCsksJIhyblnkX_4core7convert4FrommE4from
FNDA:1,_RNvXs_NtCs5EmJYJkkoQf_18entities_utilities3bigNtB4_9BigNumberINtNtCsksJIhyblnkX_4core7convert4FromxE4from
FNDA:1,_RNvNtNtCs5EmJYJkkoQf_18entities_utilities3big5testss_12test_mul_add
FNDA:1,_RNvNtNtCs5EmJYJkkoQf_18entities_utilities3big5testss_15test_comparison
FNDA:1,_RNvNtNtCs5EmJYJkkoQf_18entities_utilities3big5testss_15test_conversion
FNDA:1,_RNvNtNtCs5EmJYJkkoQf_18entities_utilities3big5testss_15test_edge_cases
FNDA:1,_RNvNtNtCs5EmJYJkkoQf_18entities_utilities3big5testss_15test_plus_small
FNDA:1,_RNvNtNtCs5EmJYJkkoQf_18entities_utilities3big5testss_18test_large_numbers
FNDA:1,_RNvNtNtCs5EmJYJkkoQf_18entities_utilities3big5testss_21test_shift_operations
FNDA:1,_RNvNtNtCs5EmJYJkkoQf_18entities_utilities3big5testss_22test_string_conversion
FNDA:1,_RNvNtNtCs5EmJYJkkoQf_18entities_utilities3big5testss_23test_bitwise_operations
FNDA:1,_RNvNtNtCs5EmJYJkkoQf_18entities_utilities3big5testss_24test_big_number_creation
FNDA:1,_RNvNtNtCs5EmJYJkkoQf_18entities_utilities3big5testss_24test_negative_operations
FNDA:1,_RNvNtNtCs5EmJYJkkoQf_18entities_utilities3big5testss_26test_arithmetic_operations
FNDA:1,_RNvNtNtCs5EmJYJkkoQf_18entities_utilities3big5testss_45test_string_conversion_invalid_base_too_large
FNDA:1,_RNvNtNtCs5EmJYJkkoQf_18entities_utilities3big5testss_45test_string_conversion_invalid_base_too_small
FNDA:0,_RNvMNtCsj0ER6oCKdWz_18entities_utilities3bigNtB2_9BigNumber10as_integer
FNDA:0,_RNvMNtCsj0ER6oCKdWz_18entities_utilities3bigNtB2_9BigNumber10plus_small
FNDA:0,_RNvMNtCsj0ER6oCKdWz_18entities_utilities3bigNtB2_9BigNumber11is_positive
FNDA:0,_RNvMNtCsj0ER6oCKdWz_18entities_utilities3bigNtB2_9BigNumber12from_integer
FNDA:0,_RNvMNtCsj0ER6oCKdWz_18entities_utilities3bigNtB2_9BigNumber14to_string_base
FNDA:2,_RNvMNtCsj0ER6oCKdWz_18entities_utilities3bigNtB2_9BigNumber3div
FNDA:1,_RNvMNtCsj0ER6oCKdWz_18entities_utilities3bigNtB2_9BigNumber3rem
FNDA:6,_RNvMNtCsj0ER6oCKdWz_18entities_utilities3bigNtB2_9BigNumber4comp
FNDA:3,_RNvMNtCsj0ER6oCKdWz_18entities_utilities3bigNtB2_9BigNumber4plus
FNDA:0,_RNvMNtCsj0ER6oCKdWz_18entities_utilities3bigNtB2_9BigNumber5bitor
FNDA:3,_RNvMNtCsj0ER6oCKdWz_18entities_utilities3bigNtB2_9BigNumber5minus
FNDA:2,_RNvMNtCsj0ER6oCKdWz_18entities_utilities3bigNtB2_9BigNumber5times
FNDA:0,_RNvMNtCsj0ER6oCKdWz_18entities_utilities3bigNtB2_9BigNumber5ucomp
FNDA:0,_RNvMNtCsj0ER6oCKdWz_18entities_utilities3bigNtB2_9BigNumber6bitand
FNDA:0,_RNvMNtCsj0ER6oCKdWz_18entities_utilities3bigNtB2_9BigNumber6bitnot
FNDA:0,_RNvMNtCsj0ER6oCKdWz_18entities_utilities3bigNtB2_9BigNumber6bitxor
FNDA:0,_RNvMNtCsj0ER6oCKdWz_18entities_utilities3bigNtB2_9BigNumber6lshift
FNDA:0,_RNvMNtCsj0ER6oCKdWz_18entities_utilities3bigNtB2_9BigNumber6to_f64
FNDA:17,_RNvMNtCsj0ER6oCKdWz_18entities_utilities3bigNtB2_9BigNumber6to_i64
FNDA:0,_RNvMNtCsj0ER6oCKdWz_18entities_utilities3bigNtB2_9BigNumber6to_u32
FNDA:8,_RNvMNtCsj0ER6oCKdWz_18entities_utilities3bigNtB2_9BigNumber7is_zero
FNDA:0,_RNvMNtCsj0ER6oCKdWz_18entities_utilities3bigNtB2_9BigNumber7mul_add
FNDA:5,_RNvMNtCsj0ER6oCKdWz_18entities_utilities3bigNtB2_9BigNumber8from_f64
FNDA:1,_RNvMNtCsj0ER6oCKdWz_18entities_utilities3bigNtB2_9BigNumber8from_i32
FNDA:15,_RNvMNtCsj0ER6oCKdWz_18entities_utilities3bigNtB2_9BigNumber8from_i64
FNDA:1,_RNvMNtCsj0ER6oCKdWz_18entities_utilities3bigNtB2_9BigNumber8from_u32
FNDA:4,_RNvMNtCsj0ER6oCKdWz_18entities_utilities3bigNtB2_9BigNumber8from_u64
FNDA:0,_RNvXs0_NtCsj0ER6oCKdWz_18entities_utilities3bigNtB5_9BigNumberINtNtCsksJIhyblnkX_4core7convert4FromyE4from
FNDA:0,_RNvXs1_NtCsj0ER6oCKdWz_18entities_utilities3bigNtB5_9BigNumberINtNtCsksJIhyblnkX_4core7convert4FromlE4from
FNDA:0,_RNvXs2_NtCsj0ER6oCKdWz_18entities_utilities3bigNtB5_9BigNumberINtNtCsksJIhyblnkX_4core7convert4FrommE4from
FNDA:0,_RNvXs_NtCsj0ER6oCKdWz_18entities_utilities3bigNtB4_9BigNumberINtNtCsksJIhyblnkX_4core7convert4FromxE4from
FNF:45
FNH:45
DA:226,64
DA:227,64
DA:228,64
DA:229,64
DA:230,64
DA:286,11
DA:287,11
DA:288,11
DA:289,11
DA:290,11
DA:342,3
DA:343,3
DA:344,3
DA:345,3
DA:346,3
DA:399,4
DA:400,4
DA:401,4
DA:402,4
DA:403,4
DA:472,15
DA:473,15
DA:474,6
DA:475,9
DA:478,9
DA:479,9
DA:482,5
DA:483,5
DA:484,5
DA:485,4
DA:490,4
DA:491,4
DA:499,4
DA:500,4
DA:501,17
DA:502,13
DA:503,13
DA:504,13
DA:507,4
DA:508,0
DA:509,0
DA:510,0
DA:511,4
DA:516,4
DA:520,13
DA:521,13
DA:522,13
DA:523,13
DA:524,13
DA:525,13
DA:529,4
DA:530,4
DA:532,17
DA:533,13
DA:534,13
DA:535,13
DA:538,4
DA:539,0
DA:540,4
DA:542,4
DA:543,15
DA:597,4
DA:600,4
DA:603,4
DA:604,4
DA:606,0
DA:608,4
DA:661,7
DA:662,7
DA:664,5
DA:665,5
DA:666,5
DA:667,3
DA:669,2
DA:672,0
DA:675,2
DA:677,7
DA:728,58
DA:729,58
DA:730,58
DA:731,58
DA:777,5
DA:778,5
DA:779,5
DA:833,15
DA:834,15
DA:835,15
DA:893,6
DA:894,6
DA:895,6
DA:896,6
DA:897,6
DA:954,5
DA:955,5
DA:956,5
DA:957,5
DA:958,5
DA:1017,4
DA:1018,4
DA:1019,4
DA:1020,4
DA:1021,4
DA:1080,4
DA:1081,4
DA:1082,1
DA:1083,3
DA:1084,3
DA:1085,3
DA:1086,3
DA:1087,4
DA:1145,4
DA:1146,4
DA:1147,1
DA:1148,3
DA:1149,3
DA:1150,3
DA:1151,3
DA:1152,4
DA:1217,1
DA:1218,1
DA:1219,1
DA:1220,1
DA:1221,1
DA:1279,1
DA:1280,1
DA:1281,1
DA:1282,1
DA:1283,1
DA:1342,1
DA:1343,1
DA:1344,1
DA:1345,1
DA:1346,1
DA:1404,1
DA:1405,1
DA:1406,1
DA:1407,1
DA:1408,1
DA:1471,1
DA:1472,1
DA:1473,1
DA:1474,1
DA:1475,1
DA:1528,3
DA:1529,3
DA:1530,3
DA:1531,3
DA:1532,3
DA:1590,7
DA:1591,7
DA:1592,4
DA:1593,4
DA:1594,4
DA:1596,3
DA:1597,3
DA:1598,3
DA:1600,7
DA:1659,11
DA:1660,11
DA:1661,4
DA:1662,2
DA:1663,5
DA:1665,11
DA:1723,2
DA:1725,2
DA:1726,2
DA:1728,0
DA:1730,2
DA:1731,0
DA:1733,2
DA:1735,2
DA:1736,0
DA:1737,1
DA:1738,1
DA:1740,2
DA:1802,21
DA:1803,21
DA:1804,2
DA:1805,19
DA:1808,19
DA:1809,4
DA:1810,3
DA:1811,2
DA:1812,1
DA:1817,9
DA:1818,9
DA:1819,9
DA:1820,9
DA:1823,9
DA:1824,0
DA:1825,0
DA:1826,9
DA:1829,9
DA:1830,1
DA:1831,8
DA:1835,8
DA:1836,27
DA:1837,19
DA:1840,19
DA:1841,5
DA:1844,14
DA:1846,19
DA:1847,19
DA:1851,19
DA:1852,19
DA:1853,15
DA:1854,15
DA:1855,4
DA:1856,4
DA:1857,4
DA:1859,8
DA:1862,19
DA:1915,1
DA:1916,1
DA:1917,1
DA:1978,1
DA:1979,1
DA:1980,1
DA:1984,1
DA:1985,1
DA:1986,1
DA:1990,1
DA:1991,1
DA:1992,1
DA:1996,1
DA:1997,1
DA:1998,1
DA:2002,1
DA:2003,1
DA:2004,1
DA:2012,1
DA:2013,1
DA:2014,1
DA:2015,1
DA:2017,1
DA:2018,1
DA:2021,1
DA:2022,1
DA:2023,1
DA:2026,1
DA:2027,1
DA:2030,1
DA:2031,1
DA:2034,1
DA:2035,1
DA:2036,1
DA:2037,1
DA:2040,1
DA:2041,1
DA:2042,1
DA:2043,1
DA:2044,1
DA:2045,1
DA:2046,1
DA:2047,1
DA:2048,1
DA:2051,1
DA:2052,1
DA:2053,1
DA:2055,1
DA:2056,1
DA:2057,1
DA:2058,1
DA:2059,1
DA:2062,1
DA:2063,1
DA:2064,1
DA:2067,1
DA:2068,1
DA:2069,1
DA:2070,1
DA:2073,1
DA:2074,1
DA:2075,1
DA:2077,1
DA:2078,1
DA:2079,1
DA:2082,1
DA:2083,1
DA:2085,1
DA:2088,1
DA:2089,1
DA:2090,1
DA:2093,1
DA:2094,1
DA:2095,1
DA:2096,1
DA:2099,1
DA:2100,1
DA:2102,1
DA:2103,1
DA:2106,1
DA:2107,1
DA:2108,1
DA:2111,1
DA:2112,1
DA:2115,1
DA:2116,1
DA:2117,1
DA:2118,1
DA:2121,1
DA:2122,1
DA:2123,1
DA:2124,1
DA:2126,1
DA:2127,1
DA:2128,1
DA:2131,1
DA:2132,1
DA:2134,1
DA:2135,1
DA:2138,1
DA:2139,1
DA:2140,1
DA:2141,1
DA:2144,1
DA:2145,1
DA:2146,1
DA:2148,1
DA:2149,1
DA:2150,1
DA:2151,1
DA:2154,1
DA:2155,1
DA:2156,1
DA:2157,1
DA:2159,1
DA:2160,1
DA:2163,1
DA:2164,1
DA:2165,1
DA:2166,1
DA:2169,1
DA:2170,1
DA:2171,1
DA:2172,1
DA:2174,1
DA:2175,1
DA:2176,1
DA:2179,1
DA:2180,1
DA:2183,1
DA:2184,1
DA:2187,1
DA:2188,1
DA:2191,1
DA:2192,1
DA:2195,1
DA:2196,1
DA:2199,1
DA:2202,1
DA:2203,1
DA:2206,1
DA:2207,1
DA:2208,1
DA:2209,1
DA:2212,1
DA:2213,1
DA:2216,1
DA:2217,1
DA:2218,1
DA:2219,1
DA:2221,1
DA:2222,1
DA:2225,1
DA:2226,1
DA:2227,1
DA:2228,1
DA:2229,1
DA:2232,1
DA:2233,1
DA:2234,1
DA:2235,1
DA:2238,1
DA:2239,1
DA:2242,1
DA:2243,1
DA:2244,1
DA:2247,1
DA:2248,1
DA:2251,1
DA:2252,1
DA:2253,1
DA:2254,1
DA:2255,1
DA:2258,1
DA:2259,1
DA:2262,1
DA:2263,1
DA:2264,1
DA:2265,1
DA:2266,1
DA:2270,1
DA:2271,1
DA:2272,1
DA:2273,1
DA:2277,1
DA:2278,1
DA:2279,1
DA:2280,1
DA:2283,1
DA:2285,1
DA:2286,1
DA:2287,1
DA:2290,1
DA:2293,1
DA:2294,1
DA:2295,1
DA:2297,1
DA:2298,1
DA:2299,1
DA:2302,1
DA:2304,1
DA:2305,1
DA:2308,1
DA:2309,1
DA:2311,1
DA:2312,1
DA:2313,1
DA:2316,1
DA:2317,1
DA:2319,1
DA:2320,1
DA:2324,1
DA:2325,1
DA:2328,1
DA:2329,1
DA:2330,1
DA:2331,1
DA:2334,1
DA:2335,1
DA:2336,1
DA:2339,1
DA:2340,1
DA:2341,1
DA:2342,1
DA:2346,1
DA:2347,1
DA:2348,1
DA:2349,1
BRF:0
BRH:0
LF:440
LH:429
end_of_record
SF:/Volumes/Files_1/iron-beam/rust-conversion/rust/entities/entities_utilities/src/register.rs
FN:1028,_RNvMNtCs5EmJYJkkoQf_18entities_utilities8registerNtB2_8Register11get_all_ids
FN:454,_RNvMNtCs5EmJYJkkoQf_18entities_utilities8registerNtB2_8Register12whereis_name
FN:963,_RNvMNtCs5EmJYJkkoQf_18entities_utilities8registerNtB2_8Register13get_all_names
FN:522,_RNvMNtCs5EmJYJkkoQf_18entities_utilities8registerNtB2_8Register13is_registered
FN:367,_RNvMNtCs5EmJYJkkoQf_18entities_utilities8registerNtB2_8Register13register_name
FN:724,_RNvMNtCs5EmJYJkkoQf_18entities_utilities8registerNtB2_8Register13unregister_id
FN:588,_RNvMNtCs5EmJYJkkoQf_18entities_utilities8registerNtB2_8Register15get_name_for_id
FN:660,_RNvMNtCs5EmJYJkkoQf_18entities_utilities8registerNtB2_8Register15unregister_name
FN:288,_RNvMNtCs5EmJYJkkoQf_18entities_utilities8registerNtB2_8Register3new
FN:785,_RNvMNtCs5EmJYJkkoQf_18entities_utilities8registerNtB2_8Register4size
FN:899,_RNvMNtCs5EmJYJkkoQf_18entities_utilities8registerNtB2_8Register5clear
FN:841,_RNvMNtCs5EmJYJkkoQf_18entities_utilities8registerNtB2_8Register8is_empty
FN:1034,_RNvXs_NtCs5EmJYJkkoQf_18entities_utilities8registerNtB4_8RegisterNtNtCsksJIhyblnkX_4core7default7Default7default
FN:1180,_RNvNtNtCs5EmJYJkkoQf_18entities_utilities8register5testss_10test_clear
FN:1224,_RNvNtNtCs5EmJYJkkoQf_18entities_utilities8register5testss_12test_default
FN:1209,_RNvNtNtCs5EmJYJkkoQf_18entities_utilities8register5testss_16test_get_all_ids
FN:1114,_RNvNtNtCs5EmJYJkkoQf_18entities_utilities8register5testss_17test_whereis_name
FN:1194,_RNvNtNtCs5EmJYJkkoQf_18entities_utilities8register5testss_18test_get_all_names
FN:1051,_RNvNtNtCs5EmJYJkkoQf_18entities_utilities8register5testss_18test_register_name
FN:1153,_RNvNtNtCs5EmJYJkkoQf_18entities_utilities8register5testss_18test_unregister_id
FN:1126,_RNvNtNtCs5EmJYJkkoQf_18entities_utilities8register5testss_20test_get_name_for_id
FN:1138,_RNvNtNtCs5EmJYJkkoQf_18entities_utilities8register5testss_20test_unregister_name
FN:1044,_RNvNtNtCs5EmJYJkkoQf_18entities_utilities8register5testss_22test_register_creation
FN:1102,_RNvNtNtCs5EmJYJkkoQf_18entities_utilities8register5testss_26test_register_invalid_name
FN:1166,_RNvNtNtCs5EmJYJkkoQf_18entities_utilities8register5testss_27test_multiple_registrations
FN:1062,_RNvNtNtCs5EmJYJkkoQf_18entities_utilities8register5testss_36test_register_duplicate_name_same_id
FN:1087,_RNvNtNtCs5EmJYJkkoQf_18entities_utilities8register5testss_36test_register_same_id_different_name
FN:1072,_RNvNtNtCs5EmJYJkkoQf_18entities_utilities8register5testss_41test_register_duplicate_name_different_id
FN:1028,_RNvMNtCsj0ER6oCKdWz_18entities_utilities8registerNtB2_8Register11get_all_ids
FN:454,_RNvMNtCsj0ER6oCKdWz_18entities_utilities8registerNtB2_8Register12whereis_name
FN:963,_RNvMNtCsj0ER6oCKdWz_18entities_utilities8registerNtB2_8Register13get_all_names
FN:522,_RNvMNtCsj0ER6oCKdWz_18entities_utilities8registerNtB2_8Register13is_registered
FN:367,_RNvMNtCsj0ER6oCKdWz_18entities_utilities8registerNtB2_8Register13register_name
FN:724,_RNvMNtCsj0ER6oCKdWz_18entities_utilities8registerNtB2_8Register13unregister_id
FN:588,_RNvMNtCsj0ER6oCKdWz_18entities_utilities8registerNtB2_8Register15get_name_for_id
FN:660,_RNvMNtCsj0ER6oCKdWz_18entities_utilities8registerNtB2_8Register15unregister_name
FN:288,_RNvMNtCsj0ER6oCKdWz_18entities_utilities8registerNtB2_8Register3new
FN:785,_RNvMNtCsj0ER6oCKdWz_18entities_utilities8registerNtB2_8Register4size
FN:899,_RNvMNtCsj0ER6oCKdWz_18entities_utilities8registerNtB2_8Register5clear
FN:841,_RNvMNtCsj0ER6oCKdWz_18entities_utilities8registerNtB2_8Register8is_empty
FN:1034,_RNvXs_NtCsj0ER6oCKdWz_18entities_utilities8registerNtB4_8RegisterNtNtCsksJIhyblnkX_4core7default7Default7default
FNDA:1,_RNvMNtCs5EmJYJkkoQf_18entities_utilities8registerNtB2_8Register11get_all_ids
FNDA:9,_RNvMNtCs5EmJYJkkoQf_18entities_utilities8registerNtB2_8Register12whereis_name
FNDA:1,_RNvMNtCs5EmJYJkkoQf_18entities_utilities8registerNtB2_8Register13get_all_names
FNDA:4,_RNvMNtCs5EmJYJkkoQf_18entities_utilities8registerNtB2_8Register13is_registered
FNDA:23,_RNvMNtCs5EmJYJkkoQf_18entities_utilities8registerNtB2_8Register13register_name
FNDA:2,_RNvMNtCs5EmJYJkkoQf_18entities_utilities8registerNtB2_8Register13unregister_id
FNDA:5,_RNvMNtCs5EmJYJkkoQf_18entities_utilities8registerNtB2_8Register15get_name_for_id
FNDA:2,_RNvMNtCs5EmJYJkkoQf_18entities_utilities8registerNtB2_8Register15unregister_name
FNDA:15,_RNvMNtCs5EmJYJkkoQf_18entities_utilities8registerNtB2_8Register3new
FNDA:6,_RNvMNtCs5EmJYJkkoQf_18entities_utilities8registerNtB2_8Register4size
FNDA:1,_RNvMNtCs5EmJYJkkoQf_18entities_utilities8registerNtB2_8Register5clear
FNDA:4,_RNvMNtCs5EmJYJkkoQf_18entities_utilities8registerNtB2_8Register8is_empty
FNDA:1,_RNvXs_NtCs5EmJYJkkoQf_18entities_utilities8registerNtB4_8RegisterNtNtCsksJIhyblnkX_4core7default7Default7default
FNDA:1,_RNvNtNtCs5EmJYJkkoQf_18entities_utilities8register5testss_10test_clear
FNDA:1,_RNvNtNtCs5EmJYJkkoQf_18entities_utilities8register5testss_12test_default
FNDA:1,_RNvNtNtCs5EmJYJkkoQf_18entities_utilities8register5testss_16test_get_all_ids
FNDA:1,_RNvNtNtCs5EmJYJkkoQf_18entities_utilities8register5testss_17test_whereis_name
FNDA:1,_RNvNtNtCs5EmJYJkkoQf_18entities_utilities8register5testss_18test_get_all_names
FNDA:1,_RNvNtNtCs5EmJYJkkoQf_18entities_utilities8register5testss_18test_register_name
FNDA:1,_RNvNtNtCs5EmJYJkkoQf_18entities_utilities8register5testss_18test_unregister_id
FNDA:1,_RNvNtNtCs5EmJYJkkoQf_18entities_utilities8register5testss_20test_get_name_for_id
FNDA:1,_RNvNtNtCs5EmJYJkkoQf_18entities_utilities8register5testss_20test_unregister_name
FNDA:1,_RNvNtNtCs5EmJYJkkoQf_18entities_utilities8register5testss_22test_register_creation
FNDA:1,_RNvNtNtCs5EmJYJkkoQf_18entities_utilities8register5testss_26test_register_invalid_name
FNDA:1,_RNvNtNtCs5EmJYJkkoQf_18entities_utilities8register5testss_27test_multiple_registrations
FNDA:1,_RNvNtNtCs5EmJYJkkoQf_18entities_utilities8register5testss_36test_register_duplicate_name_same_id
FNDA:1,_RNvNtNtCs5EmJYJkkoQf_18entities_utilities8register5testss_36test_register_same_id_different_name
FNDA:1,_RNvNtNtCs5EmJYJkkoQf_18entities_utilities8register5testss_41test_register_duplicate_name_different_id
FNDA:0,_RNvMNtCsj0ER6oCKdWz_18entities_utilities8registerNtB2_8Register11get_all_ids
FNDA:158,_RNvMNtCsj0ER6oCKdWz_18entities_utilities8registerNtB2_8Register12whereis_name
FNDA:0,_RNvMNtCsj0ER6oCKdWz_18entities_utilities8registerNtB2_8Register13get_all_names
FNDA:0,_RNvMNtCsj0ER6oCKdWz_18entities_utilities8registerNtB2_8Register13is_registered
FNDA:111,_RNvMNtCsj0ER6oCKdWz_18entities_utilities8registerNtB2_8Register13register_name
FNDA:0,_RNvMNtCsj0ER6oCKdWz_18entities_utilities8registerNtB2_8Register13unregister_id
FNDA:105,_RNvMNtCsj0ER6oCKdWz_18entities_utilities8registerNtB2_8Register15get_name_for_id
FNDA:51,_RNvMNtCsj0ER6oCKdWz_18entities_utilities8registerNtB2_8Register15unregister_name
FNDA:5,_RNvMNtCsj0ER6oCKdWz_18entities_utilities8registerNtB2_8Register3new
FNDA:6,_RNvMNtCsj0ER6oCKdWz_18entities_utilities8registerNtB2_8Register4size
FNDA:1,_RNvMNtCsj0ER6oCKdWz_18entities_utilities8registerNtB2_8Register5clear
FNDA:3,_RNvMNtCsj0ER6oCKdWz_18entities_utilities8registerNtB2_8Register8is_empty
FNDA:0,_RNvXs_NtCsj0ER6oCKdWz_18entities_utilities8registerNtB4_8RegisterNtNtCsksJIhyblnkX_4core7default7Default7default
FNF:28
FNH:28
DA:288,20
DA:289,20
DA:290,20
DA:291,20
DA:292,20
DA:367,134
DA:369,134
DA:370,2
DA:371,132
DA:374,132
DA:375,4
DA:376,2
DA:377,2
DA:379,2
DA:380,128
DA:383,5092
DA:384,4966
DA:385,2
DA:386,4964
DA:390,126
DA:391,126
DA:392,134
DA:454,167
DA:455,167
DA:456,167
DA:522,4
DA:523,4
DA:524,4
DA:588,110
DA:589,5066
DA:590,5063
DA:591,107
DA:592,4956
DA:594,3
DA:595,110
DA:660,53
DA:661,53
DA:662,53
DA:724,2
DA:725,2
DA:726,2
DA:727,1
DA:728,1
DA:729,2
DA:730,2
DA:785,12
DA:786,12
DA:787,12
DA:841,7
DA:842,7
DA:843,7
DA:899,2
DA:900,2
DA:901,2
DA:963,1
DA:964,1
DA:965,1
DA:1028,1
DA:1029,1
DA:1030,1
DA:1034,1
DA:1035,1
DA:1036,1
DA:1044,1
DA:1045,1
DA:1046,1
DA:1047,1
DA:1048,1
DA:1051,1
DA:1052,1
DA:1055,1
DA:1056,1
DA:1057,1
DA:1058,1
DA:1059,1
DA:1062,1
DA:1063,1
DA:1066,1
DA:1067,1
DA:1068,1
DA:1069,1
DA:1072,1
DA:1073,1
DA:1076,1
DA:1079,1
DA:1080,1
DA:1083,1
DA:1084,1
DA:1087,1
DA:1088,1
DA:1091,1
DA:1094,1
DA:1095,1
DA:1098,1
DA:1099,1
DA:1102,1
DA:1103,1
DA:1106,1
DA:1107,1
DA:1110,1
DA:1111,1
DA:1114,1
DA:1115,1
DA:1118,1
DA:1121,1
DA:1122,1
DA:1123,1
DA:1126,1
DA:1127,1
DA:1130,1
DA:1133,1
DA:1134,1
DA:1135,1
DA:1138,1
DA:1139,1
DA:1142,1
DA:1145,1
DA:1146,1
DA:1147,1
DA:1148,1
DA:1149,1
DA:1150,1
DA:1153,1
DA:1154,1
DA:1157,1
DA:1160,1
DA:1161,1
DA:1162,1
DA:1163,1
DA:1166,1
DA:1167,1
DA:1169,1
DA:1170,1
DA:1171,1
DA:1173,1
DA:1174,1
DA:1175,1
DA:1176,1
DA:1177,1
DA:1180,1
DA:1181,1
DA:1183,1
DA:1184,1
DA:1185,1
DA:1187,1
DA:1188,1
DA:1189,1
DA:1190,1
DA:1191,1
DA:1194,1
DA:1195,1
DA:1197,1
DA:1198,1
DA:1199,1
DA:1201,1
DA:1202,1
DA:1203,1
DA:1204,1
DA:1205,1
DA:1206,1
DA:1209,1
DA:1210,1
DA:1212,1
DA:1213,1
DA:1214,1
DA:1216,1
DA:1217,1
DA:1218,1
DA:1219,1
DA:1220,1
DA:1221,1
DA:1224,1
DA:1225,1
DA:1226,1
DA:1227,1
BRF:0
BRH:0
LF:175
LH:175
end_of_record
SF:/Volumes/Files_1/iron-beam/rust-conversion/rust/frameworks/frameworks_system_integration/src/sys_base.rs
FN:29,_RNvNtNtCseWiCrN4rsSb_29frameworks_system_integration8sys_base5testss_13test_sys_base
FN:11,_RNvMNtCseWiCrN4rsSb_29frameworks_system_integration8sys_baseNtB2_7SysBase4init
FNDA:1,_RNvNtNtCseWiCrN4rsSb_29frameworks_system_integration8sys_base5testss_13test_sys_base
FNDA:1,_RNvMNtCseWiCrN4rsSb_29frameworks_system_integration8sys_baseNtB2_7SysBase4init
FNF:2
FNH:2
DA:11,1
DA:13,1
DA:14,1
DA:29,1
DA:30,1
DA:31,1
DA:32,1
BRF:0
BRH:0
LF:7
LH:7
end_of_record
SF:/Volumes/Files_1/iron-beam/rust-conversion/rust/frameworks/frameworks_system_integration_common/src/sys_common.rs
FN:11,_RNvMNtCsatkkmTkIXZs_36frameworks_system_integration_common10sys_commonNtB2_9SysCommon4init
FN:29,_RNvNtNtCsatkkmTkIXZs_36frameworks_system_integration_common10sys_common5testss_15test_sys_common
FNDA:1,_RNvMNtCsatkkmTkIXZs_36frameworks_system_integration_common10sys_commonNtB2_9SysCommon4init
FNDA:1,_RNvNtNtCsatkkmTkIXZs_36frameworks_system_integration_common10sys_common5testss_15test_sys_common
FNF:2
FNH:2
DA:11,1
DA:13,1
DA:14,1
DA:29,1
DA:30,1
DA:31,1
DA:32,1
BRF:0
BRH:0
LF:7
LH:7
end_of_record
SF:/Volumes/Files_1/iron-beam/rust-conversion/rust/frameworks/frameworks_system_integration_unix/src/sys_integration.rs
FN:24,_RNvMNtCs6zVPSqpQ6iQ_34frameworks_system_integration_unix15sys_integrationNtB2_14SysIntegration4init
FN:13,_RNvMNtCs6zVPSqpQ6iQ_34frameworks_system_integration_unix15sys_integrationNtB2_14SysIntegration7get_env
FN:18,_RNvMNtCs6zVPSqpQ6iQ_34frameworks_system_integration_unix15sys_integrationNtB2_14SysIntegration7set_env
FN:43,_RNvNtNtCs6zVPSqpQ6iQ_34frameworks_system_integration_unix15sys_integration5testss_20test_sys_integration
FNDA:0,_RNvMNtCs6zVPSqpQ6iQ_34frameworks_system_integration_unix15sys_integrationNtB2_14SysIntegration4init
FNDA:1,_RNvMNtCs6zVPSqpQ6iQ_34frameworks_system_integration_unix15sys_integrationNtB2_14SysIntegration7get_env
FNDA:1,_RNvMNtCs6zVPSqpQ6iQ_34frameworks_system_integration_unix15sys_integrationNtB2_14SysIntegration7set_env
FNDA:1,_RNvNtNtCs6zVPSqpQ6iQ_34frameworks_system_integration_unix15sys_integration5testss_20test_sys_integration
FNF:4
FNH:3
DA:13,1
DA:14,1
DA:15,1
DA:18,1
DA:19,1
DA:20,1
DA:21,1
DA:24,0
DA:26,0
DA:27,0
DA:43,1
DA:44,1
DA:45,1
DA:46,1
DA:47,1
BRF:0
BRH:0
LF:15
LH:12
end_of_record
SF:/Volumes/Files_1/iron-beam/rust-conversion/rust/frameworks/frameworks_system_integration_win32/src/lib.rs
FN:15,_RNvCs2s369M7l94f_35frameworks_system_integration_win3212windows_only
FNDA:0,_RNvCs2s369M7l94f_35frameworks_system_integration_win3212windows_only
FNF:1
FNH:0
DA:15,0
DA:17,0
BRF:0
BRH:0
LF:2
LH:0
end_of_record
SF:/Volumes/Files_1/iron-beam/rust-conversion/rust/frameworks/frameworks_utilities/src/framework_utils.rs
FN:28,_RNvNtNtCslUNN0S1RF9a_20frameworks_utilities15framework_utils5testss_20test_framework_utils
FN:10,_RNvMNtCslUNN0S1RF9a_20frameworks_utilities15framework_utilsNtB2_14FrameworkUtils7utility
FNDA:1,_RNvNtNtCslUNN0S1RF9a_20frameworks_utilities15framework_utils5testss_20test_framework_utils
FNDA:1,_RNvMNtCslUNN0S1RF9a_20frameworks_utilities15framework_utilsNtB2_14FrameworkUtils7utility
FNF:2
FNH:2
DA:10,1
DA:12,1
DA:13,1
DA:28,1
DA:29,1
DA:30,1
DA:31,1
BRF:0
BRH:0
LF:7
LH:7
end_of_record
SF:/Volumes/Files_1/iron-beam/rust-conversion/rust/infrastructure/infrastructure_bifs/src/bif_infra.rs
FN:29,_RNvNtNtCs56A1SiArliO_19infrastructure_bifs9bif_infra5testss_14test_bif_infra
FN:11,_RNvMNtCs56A1SiArliO_19infrastructure_bifs9bif_infraNtB2_17BifInfrastructure4init
FNDA:1,_RNvNtNtCs56A1SiArliO_19infrastructure_bifs9bif_infra5testss_14test_bif_infra
FNDA:1,_RNvMNtCs56A1SiArliO_19infrastructure_bifs9bif_infraNtB2_17BifInfrastructure4init
FNF:2
FNH:2
DA:11,1
DA:13,1
DA:14,1
DA:29,1
DA:30,1
DA:31,1
DA:32,1
BRF:0
BRH:0
LF:7
LH:7
end_of_record
SF:/Volumes/Files_1/iron-beam/rust-conversion/rust/infrastructure/infrastructure_bignum_encoding/src/bignum_codec.rs
FN:44,_RNvNtNtCs1JMyaDGmH8c_30infrastructure_bignum_encoding12bignum_codec5testss_29test_bignum_codec_placeholder
FN:17,_RNvMNtCs1JMyaDGmH8c_30infrastructure_bignum_encoding12bignum_codecNtB2_11BignumCodec6decode
FN:11,_RNvMNtCs1JMyaDGmH8c_30infrastructure_bignum_encoding12bignum_codecNtB2_11BignumCodec6encode
FNDA:1,_RNvNtNtCs1JMyaDGmH8c_30infrastructure_bignum_encoding12bignum_codec5testss_29test_bignum_codec_placeholder
FNDA:0,_RNvMNtCs1JMyaDGmH8c_30infrastructure_bignum_encoding12bignum_codecNtB2_11BignumCodec6decode
FNDA:0,_RNvMNtCs1JMyaDGmH8c_30infrastructure_bignum_encoding12bignum_codecNtB2_11BignumCodec6encode
FNF:3
FNH:1
DA:11,0
DA:13,0
DA:14,0
DA:17,0
DA:19,0
DA:20,0
DA:44,1
DA:46,1
BRF:0
BRH:0
LF:8
LH:2
end_of_record
SF:/Volumes/Files_1/iron-beam/rust-conversion/rust/infrastructure/infrastructure_bignum_encoding_gmp/src/bignum_gmp.rs
FN:24,_RNvNtNtCsc0vZetJa0Eu_34infrastructure_bignum_encoding_gmp10bignum_gmp5testss_15test_bignum_gmp
FN:11,_RNvMNtCsc0vZetJa0Eu_34infrastructure_bignum_encoding_gmp10bignum_gmpNtB2_9BignumGmp3new
FNDA:1,_RNvNtNtCsc0vZetJa0Eu_34infrastructure_bignum_encoding_gmp10bignum_gmp5testss_15test_bignum_gmp
FNDA:1,_RNvMNtCsc0vZetJa0Eu_34infrastructure_bignum_encoding_gmp10bignum_gmpNtB2_9BignumGmp3new
FNF:2
FNH:2
DA:11,1
DA:12,1
DA:13,1
DA:24,1
DA:25,1
DA:26,1
BRF:0
BRH:0
LF:6
LH:6
end_of_record
SF:/Volumes/Files_1/iron-beam/rust-conversion/rust/infrastructure/infrastructure_code_loading/src/code_loader.rs
FN:13,_RINvMNtCscU4x7zfYPDD_27infrastructure_code_loading11code_loaderNtB3_10CodeLoader14load_from_fileRNtNtCsfE6eI1iGeYh_3std4path7PathBufEB5_
FN:33,_RNvNtNtCscU4x7zfYPDD_27infrastructure_code_loading11code_loader5testss_16test_code_loader
FNDA:1,_RINvMNtCscU4x7zfYPDD_27infrastructure_code_loading11code_loaderNtB3_10CodeLoader14load_from_fileRNtNtCsfE6eI1iGeYh_3std4path7PathBufEB5_
FNDA:1,_RNvNtNtCscU4x7zfYPDD_27infrastructure_code_loading11code_loader5testss_16test_code_loader
FNF:2
FNH:2
DA:13,1
DA:14,1
DA:15,1
DA:33,1
DA:34,1
DA:35,1
DA:37,1
DA:38,1
DA:39,1
DA:41,1
DA:42,1
BRF:0
BRH:0
LF:11
LH:11
end_of_record
SF:/Volumes/Files_1/iron-beam/rust-conversion/rust/infrastructure/infrastructure_data_handling/src/data_handler.rs
FN:11,_RNvMNtCsiHyJrKaKBh1_28infrastructure_data_handling12data_handlerNtB2_11DataHandler11decode_term
FN:31,_RNvNtNtCsiHyJrKaKBh1_28infrastructure_data_handling12data_handler5testss_29test_data_handler_placeholder
FNDA:0,_RNvMNtCsiHyJrKaKBh1_28infrastructure_data_handling12data_handlerNtB2_11DataHandler11decode_term
FNDA:1,_RNvNtNtCsiHyJrKaKBh1_28infrastructure_data_handling12data_handler5testss_29test_data_handler_placeholder
FNF:2
FNH:1
DA:11,0
DA:13,0
DA:14,0
DA:31,1
DA:33,1
BRF:0
BRH:0
LF:5
LH:2
end_of_record
SF:/Volumes/Files_1/iron-beam/rust-conversion/rust/infrastructure/infrastructure_debugging/src/debug_utils.rs
FN:10,_RNvMNtCsdIZpdSQexle_24infrastructure_debugging11debug_utilsNtB2_10DebugUtils12debug_output
FN:20,_RNvNtNtCsdIZpdSQexle_24infrastructure_debugging11debug_utils5testss_16test_debug_utils
FNDA:1,_RNvMNtCsdIZpdSQexle_24infrastructure_debugging11debug_utilsNtB2_10DebugUtils12debug_output
FNDA:1,_RNvNtNtCsdIZpdSQexle_24infrastructure_debugging11debug_utils5testss_16test_debug_utils
FNF:2
FNH:2
DA:10,1
DA:12,1
DA:20,1
DA:21,1
DA:22,1
BRF:0
BRH:0
LF:5
LH:5
end_of_record
SF:/Volumes/Files_1/iron-beam/rust-conversion/rust/infrastructure/infrastructure_ets_tables/src/ets_table.rs
FN:36,_RNvNtNtCskNjAiNI2jFT_25infrastructure_ets_tables9ets_table5testss_14test_ets_table
FN:14,_RNvMNtCskNjAiNI2jFT_25infrastructure_ets_tables9ets_tableNtB2_8EtsTable3new
FN:21,_RNvMNtCskNjAiNI2jFT_25infrastructure_ets_tables9ets_tableNtB2_8EtsTable6insert
FN:26,_RNvMNtCskNjAiNI2jFT_25infrastructure_ets_tables9ets_tableNtB2_8EtsTable6lookup
FNDA:1,_RNvNtNtCskNjAiNI2jFT_25infrastructure_ets_tables9ets_table5testss_14test_ets_table
FNDA:1,_RNvMNtCskNjAiNI2jFT_25infrastructure_ets_tables9ets_tableNtB2_8EtsTable3new
FNDA:1,_RNvMNtCskNjAiNI2jFT_25infrastructure_ets_tables9ets_tableNtB2_8EtsTable6insert
FNDA:1,_RNvMNtCskNjAiNI2jFT_25infrastructure_ets_tables9ets_tableNtB2_8EtsTable6lookup
FNF:4
FNH:4
DA:14,1
DA:15,1
DA:16,1
DA:17,1
DA:18,1
DA:21,1
DA:22,1
DA:23,1
DA:26,1
DA:27,1
DA:28,1
DA:36,1
DA:37,1
DA:38,1
DA:39,1
DA:40,1
BRF:0
BRH:0
LF:16
LH:16
end_of_record
SF:/Volumes/Files_1/iron-beam/rust-conversion/rust/infrastructure/infrastructure_time_management/src/time_sup.rs
FN:34,_RNvNtNtCslB6YzWwje3d_30infrastructure_time_management8time_sup5testss_13test_time_sup
FN:21,_RNvMNtCslB6YzWwje3d_30infrastructure_time_management8time_supNtB2_7TimeSup10now_millis
FN:13,_RNvMNtCslB6YzWwje3d_30infrastructure_time_management8time_supNtB2_7TimeSup10now_micros
FNDA:1,_RNvNtNtCslB6YzWwje3d_30infrastructure_time_management8time_sup5testss_13test_time_sup
FNDA:0,_RNvMNtCslB6YzWwje3d_30infrastructure_time_management8time_supNtB2_7TimeSup10now_millis
FNDA:2,_RNvMNtCslB6YzWwje3d_30infrastructure_time_management8time_supNtB2_7TimeSup10now_micros
FNF:3
FNH:2
DA:13,2
DA:14,2
DA:15,2
DA:16,2
DA:17,2
DA:18,2
DA:21,0
DA:22,0
DA:23,0
DA:24,0
DA:25,0
DA:26,0
DA:34,1
DA:35,1
DA:36,1
DA:37,1
DA:38,1
BRF:0
BRH:0
LF:17
LH:11
end_of_record
SF:/Volumes/Files_1/iron-beam/rust-conversion/rust/infrastructure/infrastructure_trace_encoding/src/trace_codec.rs
FN:44,_RNvNtNtCsch26pkVvFEw_29infrastructure_trace_encoding11trace_codec5testss_28test_trace_codec_placeholder
FN:17,_RNvMNtCsch26pkVvFEw_29infrastructure_trace_encoding11trace_codecNtB2_10TraceCodec6decode
FN:11,_RNvMNtCsch26pkVvFEw_29infrastructure_trace_encoding11trace_codecNtB2_10TraceCodec6encode
FNDA:1,_RNvNtNtCsch26pkVvFEw_29infrastructure_trace_encoding11trace_codec5testss_28test_trace_codec_placeholder
FNDA:0,_RNvMNtCsch26pkVvFEw_29infrastructure_trace_encoding11trace_codecNtB2_10TraceCodec6decode
FNDA:0,_RNvMNtCsch26pkVvFEw_29infrastructure_trace_encoding11trace_codecNtB2_10TraceCodec6encode
FNF:3
FNH:1
DA:11,0
DA:13,0
DA:14,0
DA:17,0
DA:19,0
DA:20,0
DA:44,1
DA:46,1
BRF:0
BRH:0
LF:8
LH:2
end_of_record
SF:/Volumes/Files_1/iron-beam/rust-conversion/rust/infrastructure/infrastructure_utilities/src/common.rs
FN:10,_RNvMNtCs5oAB82aAjC3_24infrastructure_utilities6commonNtB2_11CommonUtils16utility_function
FN:28,_RNvNtNtCs5oAB82aAjC3_24infrastructure_utilities6common5testss_17test_common_utils
FNDA:1,_RNvMNtCs5oAB82aAjC3_24infrastructure_utilities6commonNtB2_11CommonUtils16utility_function
FNDA:1,_RNvNtNtCs5oAB82aAjC3_24infrastructure_utilities6common5testss_17test_common_utils
FNF:2
FNH:2
DA:10,1
DA:12,1
DA:13,1
DA:28,1
DA:29,1
DA:30,1
DA:31,1
BRF:0
BRH:0
LF:7
LH:7
end_of_record
SF:/Volumes/Files_1/iron-beam/rust-conversion/rust/infrastructure/infrastructure_utilities/src/helpers.rs
FN:10,_RNvMNtCs5oAB82aAjC3_24infrastructure_utilities7helpersNtB2_15HelperFunctions6helper
FN:21,_RNvNtNtCs5oAB82aAjC3_24infrastructure_utilities7helpers5testss_12test_helpers
FNDA:1,_RNvMNtCs5oAB82aAjC3_24infrastructure_utilities7helpersNtB2_15HelperFunctions6helper
FNDA:1,_RNvNtNtCs5oAB82aAjC3_24infrastructure_utilities7helpers5testss_12test_helpers
FNF:2
FNH:2
DA:10,1
DA:12,1
DA:13,1
DA:21,1
DA:22,1
DA:23,1
BRF:0
BRH:0
LF:6
LH:6
end_of_record
SF:/Volumes/Files_1/iron-beam/rust-conversion/rust/usecases/usecases_bifs/src/checksum.rs
FN:17,_RNvMNtCsajiSv2X1aiB_13usecases_bifs8checksumNtB2_11ChecksumBif3md5
FN:11,_RNvMNtCsajiSv2X1aiB_13usecases_bifs8checksumNtB2_11ChecksumBif5crc32
FN:28,_RNvNtNtCsajiSv2X1aiB_13usecases_bifs8checksum5testss_25test_checksum_placeholder
FNDA:0,_RNvMNtCsajiSv2X1aiB_13usecases_bifs8checksumNtB2_11ChecksumBif3md5
FNDA:0,_RNvMNtCsajiSv2X1aiB_13usecases_bifs8checksumNtB2_11ChecksumBif5crc32
FNDA:1,_RNvNtNtCsajiSv2X1aiB_13usecases_bifs8checksum5testss_25test_checksum_placeholder
FNF:3
FNH:1
DA:11,0
DA:13,0
DA:14,0
DA:17,0
DA:19,0
DA:20,0
DA:28,1
DA:30,1
BRF:0
BRH:0
LF:8
LH:2
end_of_record
SF:/Volumes/Files_1/iron-beam/rust-conversion/rust/usecases/usecases_bifs/src/regex.rs
FN:11,_RNvMNtCsajiSv2X1aiB_13usecases_bifs5regexNtB2_8RegexBif7compile
FN:36,_RNvNtNtCsajiSv2X1aiB_13usecases_bifs5regex5testss_22test_regex_placeholder
FNDA:0,_RNvMNtCsajiSv2X1aiB_13usecases_bifs5regexNtB2_8RegexBif7compile
FNDA:1,_RNvNtNtCsajiSv2X1aiB_13usecases_bifs5regex5testss_22test_regex_placeholder
FNF:2
FNH:1
DA:11,0
DA:13,0
DA:14,0
DA:36,1
DA:38,1
BRF:0
BRH:0
LF:5
LH:2
end_of_record
SF:/Volumes/Files_1/iron-beam/rust-conversion/rust/usecases/usecases_bifs/src/trace.rs
FN:29,_RNvNtNtCsajiSv2X1aiB_13usecases_bifs5trace5testss_22test_trace_placeholder
FN:11,_RNvMNtCsajiSv2X1aiB_13usecases_bifs5traceNtB2_8TraceBif6enable
FNDA:1,_RNvNtNtCsajiSv2X1aiB_13usecases_bifs5trace5testss_22test_trace_placeholder
FNDA:0,_RNvMNtCsajiSv2X1aiB_13usecases_bifs5traceNtB2_8TraceBif6enable
FNF:2
FNH:1
DA:11,0
DA:13,0
DA:14,0
DA:29,1
DA:31,1
BRF:0
BRH:0
LF:5
LH:2
end_of_record
SF:/Volumes/Files_1/iron-beam/rust-conversion/rust/usecases/usecases_io_operations/src/helpers.rs
FN:83,_RNvNtCsbq3kpSfn2NX_22usecases_io_operations7helpers12convert_args
FN:217,_RNvNtCsbq3kpSfn2NX_22usecases_io_operations7helpers12http_bld_uri
FN:193,_RNvNtCsbq3kpSfn2NX_22usecases_io_operations7helpers15http_bld_string
FN:49,_RNvNtCsbq3kpSfn2NX_22usecases_io_operations7helpers24merge_global_environment
FN:100,_RNvNtCsbq3kpSfn2NX_22usecases_io_operations7helpers9free_args
FN:55,_RNCNvNtCsbq3kpSfn2NX_22usecases_io_operations7helpers24merge_global_environment0B5_
FN:83,_RNvNtCs4NNtTemTFLW_22usecases_io_operations7helpers12convert_args
FN:217,_RNvNtCs4NNtTemTFLW_22usecases_io_operations7helpers12http_bld_uri
FN:193,_RNvNtCs4NNtTemTFLW_22usecases_io_operations7helpers15http_bld_string
FN:49,_RNvNtCs4NNtTemTFLW_22usecases_io_operations7helpers24merge_global_environment
FN:309,_RNvNtNtCs4NNtTemTFLW_22usecases_io_operations7helpers5testss_17test_convert_args
FN:327,_RNvNtNtCs4NNtTemTFLW_22usecases_io_operations7helpers5testss_20test_http_bld_string
FN:342,_RNvNtNtCs4NNtTemTFLW_22usecases_io_operations7helpers5testss_22test_http_bld_uri_star
FN:320,_RNvNtNtCs4NNtTemTFLW_22usecases_io_operations7helpers5testss_23test_convert_args_empty
FN:358,_RNvNtNtCs4NNtTemTFLW_22usecases_io_operations7helpers5testss_26test_http_bld_uri_abs_path
FN:285,_RNvNtNtCs4NNtTemTFLW_22usecases_io_operations7helpers5testss_29test_merge_global_environment
FN:55,_RNCNvNtCs4NNtTemTFLW_22usecases_io_operations7helpers24merge_global_environment0B5_
FN:100,_RNvNtCs4NNtTemTFLW_22usecases_io_operations7helpers9free_args
FNDA:1,_RNvNtCsbq3kpSfn2NX_22usecases_io_operations7helpers12convert_args
FNDA:3,_RNvNtCsbq3kpSfn2NX_22usecases_io_operations7helpers12http_bld_uri
FNDA:3,_RNvNtCsbq3kpSfn2NX_22usecases_io_operations7helpers15http_bld_string
FNDA:1,_RNvNtCsbq3kpSfn2NX_22usecases_io_operations7helpers24merge_global_environment
FNDA:0,_RNvNtCsbq3kpSfn2NX_22usecases_io_operations7helpers9free_args
FNDA:2,_RNCNvNtCsbq3kpSfn2NX_22usecases_io_operations7helpers24merge_global_environment0B5_
FNDA:2,_RNvNtCs4NNtTemTFLW_22usecases_io_operations7helpers12convert_args
FNDA:2,_RNvNtCs4NNtTemTFLW_22usecases_io_operations7helpers12http_bld_uri
FNDA:2,_RNvNtCs4NNtTemTFLW_22usecases_io_operations7helpers15http_bld_string
FNDA:1,_RNvNtCs4NNtTemTFLW_22usecases_io_operations7helpers24merge_global_environment
FNDA:1,_RNvNtNtCs4NNtTemTFLW_22usecases_io_operations7helpers5testss_17test_convert_args
FNDA:1,_RNvNtNtCs4NNtTemTFLW_22usecases_io_operations7helpers5testss_20test_http_bld_string
FNDA:1,_RNvNtNtCs4NNtTemTFLW_22usecases_io_operations7helpers5testss_22test_http_bld_uri_star
FNDA:1,_RNvNtNtCs4NNtTemTFLW_22usecases_io_operations7helpers5testss_23test_convert_args_empty
FNDA:1,_RNvNtNtCs4NNtTemTFLW_22usecases_io_operations7helpers5testss_26test_http_bld_uri_abs_path
FNDA:1,_RNvNtNtCs4NNtTemTFLW_22usecases_io_operations7helpers5testss_29test_merge_global_environment
FNDA:2,_RNCNvNtCs4NNtTemTFLW_22usecases_io_operations7helpers24merge_global_environment0B5_
FNDA:0,_RNvNtCs4NNtTemTFLW_22usecases_io_operations7helpers9free_args
FNF:12
FNH:11
DA:49,2
DA:50,2
DA:51,2
DA:52,2
DA:53,2
DA:55,4
DA:58,8
DA:59,4
DA:60,4
DA:61,4
DA:62,4
DA:63,2
DA:64,2
DA:65,2
DA:66,2
DA:70,2
DA:71,2
DA:83,3
DA:84,3
DA:85,1
DA:86,2
DA:88,2
DA:89,2
DA:90,2
DA:91,3
DA:100,0
DA:102,0
DA:193,5
DA:194,5
DA:195,5
DA:196,5
DA:197,5
DA:198,5
DA:200,0
DA:203,5
DA:205,5
DA:217,5
DA:218,5
DA:219,5
DA:220,5
DA:221,5
DA:222,2
DA:223,2
DA:224,2
DA:225,2
DA:226,2
DA:227,2
DA:230,1
DA:231,1
DA:232,1
DA:233,1
DA:235,1
DA:236,1
DA:237,1
DA:238,1
DA:239,1
DA:240,1
DA:241,1
DA:242,1
DA:243,1
DA:244,1
DA:245,1
DA:246,1
DA:248,0
DA:249,0
DA:250,0
DA:251,0
DA:252,0
DA:254,0
DA:255,0
DA:256,0
DA:257,0
DA:258,0
DA:259,0
DA:260,0
DA:261,0
DA:262,0
DA:263,0
DA:264,0
DA:267,5
DA:285,1
DA:286,1
DA:287,1
DA:288,1
DA:289,1
DA:290,1
DA:291,1
DA:292,1
DA:293,1
DA:295,1
DA:296,1
DA:297,1
DA:298,1
DA:301,1
DA:303,1
DA:304,1
DA:305,1
DA:306,1
DA:309,1
DA:310,1
DA:311,1
DA:313,1
DA:314,1
DA:315,1
DA:316,1
DA:317,1
DA:320,1
DA:321,1
DA:322,1
DA:323,1
DA:324,1
DA:327,1
DA:328,1
DA:329,1
DA:330,1
DA:331,1
DA:332,1
DA:333,1
DA:334,1
DA:335,1
DA:337,1
DA:338,1
DA:339,1
DA:342,1
DA:343,1
DA:344,1
DA:345,1
DA:346,1
DA:347,1
DA:348,1
DA:349,1
DA:350,1
DA:352,1
DA:353,1
DA:354,1
DA:355,1
DA:358,1
DA:359,1
DA:360,1
DA:361,1
DA:362,1
DA:363,1
DA:364,1
DA:365,1
DA:366,1
DA:368,1
DA:369,1
DA:371,1
DA:372,1
DA:373,0
DA:375,1
BRF:0
BRH:0
LF:152
LH:132
end_of_record
SF:/Volumes/Files_1/iron-beam/rust-conversion/rust/usecases/usecases_io_operations/src/port_bif.rs
FN:94,_RNvMNtCsbq3kpSfn2NX_22usecases_io_operations8port_bifNtB2_7PortBif11open_port_2
FN:147,_RNvMNtCsbq3kpSfn2NX_22usecases_io_operations8port_bifNtB2_7PortBif11port_call_3
FN:231,_RNvMNtCsbq3kpSfn2NX_22usecases_io_operations8port_bifNtB2_7PortBif11port_info_1
FN:251,_RNvMNtCsbq3kpSfn2NX_22usecases_io_operations8port_bifNtB2_7PortBif11port_info_2
FN:191,_RNvMNtCsbq3kpSfn2NX_22usecases_io_operations8port_bifNtB2_7PortBif12port_close_1
FN:122,_RNvMNtCsbq3kpSfn2NX_22usecases_io_operations8port_bifNtB2_7PortBif14port_command_3
FN:211,_RNvMNtCsbq3kpSfn2NX_22usecases_io_operations8port_bifNtB2_7PortBif14port_connect_2
FN:170,_RNvMNtCsbq3kpSfn2NX_22usecases_io_operations8port_bifNtB2_7PortBif14port_control_3
FN:309,_RNvMNtCsbq3kpSfn2NX_22usecases_io_operations8port_bifNtB2_7PortBif14port_data_read
FN:327,_RNvMNtCsbq3kpSfn2NX_22usecases_io_operations8port_bifNtB2_7PortBif15decode_packet_3
FN:292,_RNvMNtCsbq3kpSfn2NX_22usecases_io_operations8port_bifNtB2_7PortBif15port_get_data_1
FN:272,_RNvMNtCsbq3kpSfn2NX_22usecases_io_operations8port_bifNtB2_7PortBif15port_set_data_2
FN:566,_RNvXs0_NtCsbq3kpSfn2NX_22usecases_io_operations8port_bifNtB5_13PacketOptionsNtNtCsksJIhyblnkX_4core7default7Default7default
FN:402,_RNvXs_NtCsbq3kpSfn2NX_22usecases_io_operations8port_bifNtB4_12PortSettingsNtNtCsksJIhyblnkX_4core7default7Default7default
FN:642,_RNvNtNtCs4NNtTemTFLW_22usecases_io_operations8port_bif5testss_14test_port_name
FN:674,_RNvNtNtCs4NNtTemTFLW_22usecases_io_operations8port_bif5testss_15test_port_error
FN:633,_RNvNtNtCs4NNtTemTFLW_22usecases_io_operations8port_bif5testss_20test_port_identifier
FN:625,_RNvNtNtCs4NNtTemTFLW_22usecases_io_operations8port_bif5testss_26test_port_settings_default
FN:666,_RNvNtNtCs4NNtTemTFLW_22usecases_io_operations8port_bif5testss_27test_packet_options_default
FN:566,_RNvXs0_NtCs4NNtTemTFLW_22usecases_io_operations8port_bifNtB5_13PacketOptionsNtNtCsksJIhyblnkX_4core7default7Default7default
FN:402,_RNvXs_NtCs4NNtTemTFLW_22usecases_io_operations8port_bifNtB4_12PortSettingsNtNtCsksJIhyblnkX_4core7default7Default7default
FN:94,_RNvMNtCs4NNtTemTFLW_22usecases_io_operations8port_bifNtB2_7PortBif11open_port_2
FN:147,_RNvMNtCs4NNtTemTFLW_22usecases_io_operations8port_bifNtB2_7PortBif11port_call_3
FN:231,_RNvMNtCs4NNtTemTFLW_22usecases_io_operations8port_bifNtB2_7PortBif11port_info_1
FN:251,_RNvMNtCs4NNtTemTFLW_22usecases_io_operations8port_bifNtB2_7PortBif11port_info_2
FN:191,_RNvMNtCs4NNtTemTFLW_22usecases_io_operations8port_bifNtB2_7PortBif12port_close_1
FN:122,_RNvMNtCs4NNtTemTFLW_22usecases_io_operations8port_bifNtB2_7PortBif14port_command_3
FN:211,_RNvMNtCs4NNtTemTFLW_22usecases_io_operations8port_bifNtB2_7PortBif14port_connect_2
FN:170,_RNvMNtCs4NNtTemTFLW_22usecases_io_operations8port_bifNtB2_7PortBif14port_control_3
FN:309,_RNvMNtCs4NNtTemTFLW_22usecases_io_operations8port_bifNtB2_7PortBif14port_data_read
FN:327,_RNvMNtCs4NNtTemTFLW_22usecases_io_operations8port_bifNtB2_7PortBif15decode_packet_3
FN:292,_RNvMNtCs4NNtTemTFLW_22usecases_io_operations8port_bifNtB2_7PortBif15port_get_data_1
FN:272,_RNvMNtCs4NNtTemTFLW_22usecases_io_operations8port_bifNtB2_7PortBif15port_set_data_2
FNDA:0,_RNvMNtCsbq3kpSfn2NX_22usecases_io_operations8port_bifNtB2_7PortBif11open_port_2
FNDA:0,_RNvMNtCsbq3kpSfn2NX_22usecases_io_operations8port_bifNtB2_7PortBif11port_call_3
FNDA:0,_RNvMNtCsbq3kpSfn2NX_22usecases_io_operations8port_bifNtB2_7PortBif11port_info_1
FNDA:0,_RNvMNtCsbq3kpSfn2NX_22usecases_io_operations8port_bifNtB2_7PortBif11port_info_2
FNDA:0,_RNvMNtCsbq3kpSfn2NX_22usecases_io_operations8port_bifNtB2_7PortBif12port_close_1
FNDA:0,_RNvMNtCsbq3kpSfn2NX_22usecases_io_operations8port_bifNtB2_7PortBif14port_command_3
FNDA:0,_RNvMNtCsbq3kpSfn2NX_22usecases_io_operations8port_bifNtB2_7PortBif14port_connect_2
FNDA:0,_RNvMNtCsbq3kpSfn2NX_22usecases_io_operations8port_bifNtB2_7PortBif14port_control_3
FNDA:0,_RNvMNtCsbq3kpSfn2NX_22usecases_io_operations8port_bifNtB2_7PortBif14port_data_read
FNDA:0,_RNvMNtCsbq3kpSfn2NX_22usecases_io_operations8port_bifNtB2_7PortBif15decode_packet_3
FNDA:0,_RNvMNtCsbq3kpSfn2NX_22usecases_io_operations8port_bifNtB2_7PortBif15port_get_data_1
FNDA:0,_RNvMNtCsbq3kpSfn2NX_22usecases_io_operations8port_bifNtB2_7PortBif15port_set_data_2
FNDA:1,_RNvXs0_NtCsbq3kpSfn2NX_22usecases_io_operations8port_bifNtB5_13PacketOptionsNtNtCsksJIhyblnkX_4core7default7Default7default
FNDA:1,_RNvXs_NtCsbq3kpSfn2NX_22usecases_io_operations8port_bifNtB4_12PortSettingsNtNtCsksJIhyblnkX_4core7default7Default7default
FNDA:1,_RNvNtNtCs4NNtTemTFLW_22usecases_io_operations8port_bif5testss_14test_port_name
FNDA:1,_RNvNtNtCs4NNtTemTFLW_22usecases_io_operations8port_bif5testss_15test_port_error
FNDA:1,_RNvNtNtCs4NNtTemTFLW_22usecases_io_operations8port_bif5testss_20test_port_identifier
FNDA:1,_RNvNtNtCs4NNtTemTFLW_22usecases_io_operations8port_bif5testss_26test_port_settings_default
FNDA:1,_RNvNtNtCs4NNtTemTFLW_22usecases_io_operations8port_bif5testss_27test_packet_options_default
FNDA:1,_RNvXs0_NtCs4NNtTemTFLW_22usecases_io_operations8port_bifNtB5_13PacketOptionsNtNtCsksJIhyblnkX_4core7default7Default7default
FNDA:1,_RNvXs_NtCs4NNtTemTFLW_22usecases_io_operations8port_bifNtB4_12PortSettingsNtNtCsksJIhyblnkX_4core7default7Default7default
FNDA:0,_RNvMNtCs4NNtTemTFLW_22usecases_io_operations8port_bifNtB2_7PortBif11open_port_2
FNDA:0,_RNvMNtCs4NNtTemTFLW_22usecases_io_operations8port_bifNtB2_7PortBif11port_call_3
FNDA:0,_RNvMNtCs4NNtTemTFLW_22usecases_io_operations8port_bifNtB2_7PortBif11port_info_1
FNDA:0,_RNvMNtCs4NNtTemTFLW_22usecases_io_operations8port_bifNtB2_7PortBif11port_info_2
FNDA:0,_RNvMNtCs4NNtTemTFLW_22usecases_io_operations8port_bifNtB2_7PortBif12port_close_1
FNDA:0,_RNvMNtCs4NNtTemTFLW_22usecases_io_operations8port_bifNtB2_7PortBif14port_command_3
FNDA:0,_RNvMNtCs4NNtTemTFLW_22usecases_io_operations8port_bifNtB2_7PortBif14port_connect_2
FNDA:0,_RNvMNtCs4NNtTemTFLW_22usecases_io_operations8port_bifNtB2_7PortBif14port_control_3
FNDA:0,_RNvMNtCs4NNtTemTFLW_22usecases_io_operations8port_bifNtB2_7PortBif14port_data_read
FNDA:0,_RNvMNtCs4NNtTemTFLW_22usecases_io_operations8port_bifNtB2_7PortBif15decode_packet_3
FNDA:0,_RNvMNtCs4NNtTemTFLW_22usecases_io_operations8port_bifNtB2_7PortBif15port_get_data_1
FNDA:0,_RNvMNtCs4NNtTemTFLW_22usecases_io_operations8port_bifNtB2_7PortBif15port_set_data_2
FNF:19
FNH:7
DA:94,0
DA:95,0
DA:96,0
DA:97,0
DA:98,0
DA:102,0
DA:103,0
DA:122,0
DA:123,0
DA:124,0
DA:125,0
DA:126,0
DA:127,0
DA:131,0
DA:132,0
DA:147,0
DA:148,0
DA:149,0
DA:150,0
DA:151,0
DA:152,0
DA:154,0
DA:155,0
DA:170,0
DA:171,0
DA:172,0
DA:173,0
DA:174,0
DA:175,0
DA:177,0
DA:178,0
DA:191,0
DA:192,0
DA:193,0
DA:194,0
DA:196,0
DA:197,0
DA:211,0
DA:212,0
DA:213,0
DA:214,0
DA:215,0
DA:217,0
DA:218,0
DA:231,0
DA:232,0
DA:233,0
DA:234,0
DA:236,0
DA:237,0
DA:251,0
DA:252,0
DA:253,0
DA:254,0
DA:255,0
DA:257,0
DA:258,0
DA:272,0
DA:273,0
DA:274,0
DA:275,0
DA:276,0
DA:278,0
DA:279,0
DA:292,0
DA:293,0
DA:294,0
DA:295,0
DA:297,0
DA:298,0
DA:309,0
DA:311,0
DA:312,0
DA:327,0
DA:328,0
DA:329,0
DA:330,0
DA:331,0
DA:332,0
DA:334,0
DA:335,0
DA:402,2
DA:403,2
DA:404,2
DA:405,2
DA:406,2
DA:407,2
DA:408,2
DA:409,2
DA:410,2
DA:411,2
DA:412,2
DA:413,2
DA:414,2
DA:415,2
DA:416,2
DA:417,2
DA:418,2
DA:419,2
DA:420,2
DA:421,2
DA:422,2
DA:423,2
DA:566,2
DA:567,2
DA:568,2
DA:569,2
DA:570,2
DA:571,2
DA:572,2
DA:625,1
DA:626,1
DA:627,1
DA:628,1
DA:629,1
DA:630,1
DA:633,1
DA:634,1
DA:635,1
DA:637,1
DA:638,1
DA:639,1
DA:642,1
DA:643,1
DA:644,1
DA:645,1
DA:646,1
DA:647,1
DA:648,1
DA:649,1
DA:651,1
DA:652,1
DA:653,0
DA:656,1
DA:657,1
DA:658,1
DA:659,1
DA:661,0
DA:663,1
DA:666,1
DA:667,1
DA:668,1
DA:669,1
DA:670,1
DA:671,1
DA:674,1
DA:675,1
DA:676,1
DA:677,1
BRF:0
BRH:0
LF:149
LH:66
end_of_record
SF:/Volumes/Files_1/iron-beam/rust-conversion/rust/usecases/usecases_io_operations/src/port_control.rs
FN:40,_RNvMNtCsbq3kpSfn2NX_22usecases_io_operations12port_controlNtB2_13ControlDriver3new
FN:85,_RNvMNtCsbq3kpSfn2NX_22usecases_io_operations12port_controlNtB2_13ControlDriver4read
FN:74,_RNvMNtCsbq3kpSfn2NX_22usecases_io_operations12port_controlNtB2_13ControlDriver4stop
FN:55,_RNvMNtCsbq3kpSfn2NX_22usecases_io_operations12port_controlNtB2_13ControlDriver5start
FN:108,_RNvMNtCsbq3kpSfn2NX_22usecases_io_operations12port_controlNtB2_13ControlDriver7control
FN:164,_RNvXs_NtCsbq3kpSfn2NX_22usecases_io_operations12port_controlNtB4_13ControlDriverNtNtCsksJIhyblnkX_4core7default7Default7default
FN:40,_RNvMNtCs4NNtTemTFLW_22usecases_io_operations12port_controlNtB2_13ControlDriver3new
FN:85,_RNvMNtCs4NNtTemTFLW_22usecases_io_operations12port_controlNtB2_13ControlDriver4read
FN:74,_RNvMNtCs4NNtTemTFLW_22usecases_io_operations12port_controlNtB2_13ControlDriver4stop
FN:55,_RNvMNtCs4NNtTemTFLW_22usecases_io_operations12port_controlNtB2_13ControlDriver5start
FN:108,_RNvMNtCs4NNtTemTFLW_22usecases_io_operations12port_controlNtB2_13ControlDriver7control
FN:185,_RNvNtNtCs4NNtTemTFLW_22usecases_io_operations12port_control5testss_23test_control_driver_new
FN:192,_RNvNtNtCs4NNtTemTFLW_22usecases_io_operations12port_control5testss_30test_control_driver_start_stop
FN:243,_RNvNtNtCs4NNtTemTFLW_22usecases_io_operations12port_control5testss_32test_control_driver_control_busy
FN:222,_RNvNtNtCs4NNtTemTFLW_22usecases_io_operations12port_control5testss_32test_control_driver_control_echo
FN:253,_RNvNtNtCs4NNtTemTFLW_22usecases_io_operations12port_control5testss_34test_control_driver_control_output
FN:214,_RNvNtNtCs4NNtTemTFLW_22usecases_io_operations12port_control5testss_36test_control_driver_read_not_started
FN:232,_RNvNtNtCs4NNtTemTFLW_22usecases_io_operations12port_control5testss_38test_control_driver_control_large_echo
FN:284,_RNvNtNtCs4NNtTemTFLW_22usecases_io_operations12port_control5testss_39test_control_driver_control_not_started
FN:273,_RNvNtNtCs4NNtTemTFLW_22usecases_io_operations12port_control5testss_41test_control_driver_control_large_command
FN:263,_RNvNtNtCs4NNtTemTFLW_22usecases_io_operations12port_control5testss_47test_control_driver_control_invalid_single_byte
FN:164,_RNvXs_NtCs4NNtTemTFLW_22usecases_io_operations12port_controlNtB4_13ControlDriverNtNtCsksJIhyblnkX_4core7default7Default7default
FNDA:1,_RNvMNtCsbq3kpSfn2NX_22usecases_io_operations12port_controlNtB2_13ControlDriver3new
FNDA:0,_RNvMNtCsbq3kpSfn2NX_22usecases_io_operations12port_controlNtB2_13ControlDriver4read
FNDA:1,_RNvMNtCsbq3kpSfn2NX_22usecases_io_operations12port_controlNtB2_13ControlDriver4stop
FNDA:1,_RNvMNtCsbq3kpSfn2NX_22usecases_io_operations12port_controlNtB2_13ControlDriver5start
FNDA:1,_RNvMNtCsbq3kpSfn2NX_22usecases_io_operations12port_controlNtB2_13ControlDriver7control
FNDA:0,_RNvXs_NtCsbq3kpSfn2NX_22usecases_io_operations12port_controlNtB4_13ControlDriverNtNtCsksJIhyblnkX_4core7default7Default7default
FNDA:10,_RNvMNtCs4NNtTemTFLW_22usecases_io_operations12port_controlNtB2_13ControlDriver3new
FNDA:1,_RNvMNtCs4NNtTemTFLW_22usecases_io_operations12port_controlNtB2_13ControlDriver4read
FNDA:1,_RNvMNtCs4NNtTemTFLW_22usecases_io_operations12port_controlNtB2_13ControlDriver4stop
FNDA:9,_RNvMNtCs4NNtTemTFLW_22usecases_io_operations12port_controlNtB2_13ControlDriver5start
FNDA:7,_RNvMNtCs4NNtTemTFLW_22usecases_io_operations12port_controlNtB2_13ControlDriver7control
FNDA:1,_RNvNtNtCs4NNtTemTFLW_22usecases_io_operations12port_control5testss_23test_control_driver_new
FNDA:1,_RNvNtNtCs4NNtTemTFLW_22usecases_io_operations12port_control5testss_30test_control_driver_start_stop
FNDA:1,_RNvNtNtCs4NNtTemTFLW_22usecases_io_operations12port_control5testss_32test_control_driver_control_busy
FNDA:1,_RNvNtNtCs4NNtTemTFLW_22usecases_io_operations12port_control5testss_32test_control_driver_control_echo
FNDA:1,_RNvNtNtCs4NNtTemTFLW_22usecases_io_operations12port_control5testss_34test_control_driver_control_output
FNDA:1,_RNvNtNtCs4NNtTemTFLW_22usecases_io_operations12port_control5testss_36test_control_driver_read_not_started
FNDA:1,_RNvNtNtCs4NNtTemTFLW_22usecases_io_operations12port_control5testss_38test_control_driver_control_large_echo
FNDA:1,_RNvNtNtCs4NNtTemTFLW_22usecases_io_operations12port_control5testss_39test_control_driver_control_not_started
FNDA:1,_RNvNtNtCs4NNtTemTFLW_22usecases_io_operations12port_control5testss_41test_control_driver_control_large_command
FNDA:1,_RNvNtNtCs4NNtTemTFLW_22usecases_io_operations12port_control5testss_47test_control_driver_control_invalid_single_byte
FNDA:0,_RNvXs_NtCs4NNtTemTFLW_22usecases_io_operations12port_controlNtB4_13ControlDriverNtNtCsksJIhyblnkX_4core7default7Default7default
FNF:16
FNH:15
DA:40,11
DA:41,11
DA:42,11
DA:43,11
DA:44,11
DA:55,10
DA:56,10
DA:57,10
DA:58,10
DA:59,10
DA:60,10
DA:61,10
DA:62,10
DA:63,9
DA:64,1
DA:66,10
DA:74,2
DA:75,2
DA:76,2
DA:85,1
DA:86,1
DA:87,1
DA:88,1
DA:89,0
DA:93,0
DA:94,1
DA:108,8
DA:109,8
DA:110,8
DA:111,8
DA:112,8
DA:113,8
DA:114,8
DA:115,8
DA:116,8
DA:117,1
DA:118,7
DA:120,7
DA:123,3
DA:125,1
DA:128,2
DA:129,2
DA:130,2
DA:135,1
DA:136,1
DA:137,1
DA:138,1
DA:139,1
DA:144,1
DA:147,2
DA:148,1
DA:151,1
DA:152,1
DA:153,1
DA:154,1
DA:155,1
DA:156,1
DA:160,8
DA:164,0
DA:165,0
DA:166,0
DA:185,1
DA:186,1
DA:187,1
DA:188,1
DA:189,1
DA:192,1
DA:193,1
DA:196,1
DA:197,1
DA:198,1
DA:201,1
DA:202,1
DA:203,1
DA:206,1
DA:209,1
DA:210,1
DA:211,1
DA:214,1
DA:215,1
DA:216,1
DA:217,1
DA:218,1
DA:219,1
DA:222,1
DA:223,1
DA:224,1
DA:226,1
DA:227,1
DA:228,1
DA:229,1
DA:232,1
DA:233,1
DA:234,1
DA:236,1
DA:237,1
DA:238,1
DA:239,1
DA:240,1
DA:243,1
DA:244,1
DA:245,1
DA:247,1
DA:248,1
DA:249,1
DA:250,1
DA:253,1
DA:254,1
DA:255,1
DA:257,1
DA:258,1
DA:259,1
DA:260,1
DA:263,1
DA:264,1
DA:265,1
DA:267,1
DA:268,1
DA:269,1
DA:270,1
DA:273,1
DA:274,1
DA:275,1
DA:277,1
DA:278,1
DA:279,1
DA:280,1
DA:281,1
DA:284,1
DA:285,1
DA:286,1
DA:287,1
DA:288,1
DA:289,1
BRF:0
BRH:0
LF:134
LH:129
end_of_record
SF:/Volumes/Files_1/iron-beam/rust-conversion/rust/usecases/usecases_memory_management/src/afit.rs
FN:11,_RNvMNtCs9nYi58spymo_26usecases_memory_management4afitNtB2_13AFitAllocator3new
FN:17,_RNvXs_NtCs9nYi58spymo_26usecases_memory_management4afitNtB4_13AFitAllocatorNtNtB6_9allocator9Allocator5alloc
FN:26,_RNvXs_NtCs9nYi58spymo_26usecases_memory_management4afitNtB4_13AFitAllocatorNtNtB6_9allocator9Allocator7dealloc
FN:22,_RNvXs_NtCs9nYi58spymo_26usecases_memory_management4afitNtB4_13AFitAllocatorNtNtB6_9allocator9Allocator7realloc
FNDA:0,_RNvMNtCs9nYi58spymo_26usecases_memory_management4afitNtB2_13AFitAllocator3new
FNDA:0,_RNvXs_NtCs9nYi58spymo_26usecases_memory_management4afitNtB4_13AFitAllocatorNtNtB6_9allocator9Allocator5alloc
FNDA:0,_RNvXs_NtCs9nYi58spymo_26usecases_memory_management4afitNtB4_13AFitAllocatorNtNtB6_9allocator9Allocator7dealloc
FNDA:0,_RNvXs_NtCs9nYi58spymo_26usecases_memory_management4afitNtB4_13AFitAllocatorNtNtB6_9allocator9Allocator7realloc
FNF:4
FNH:0
DA:11,0
DA:12,0
DA:13,0
DA:17,0
DA:19,0
DA:20,0
DA:22,0
DA:23,0
DA:24,0
DA:26,0
DA:27,0
DA:28,0
BRF:0
BRH:0
LF:12
LH:0
end_of_record
SF:/Volumes/Files_1/iron-beam/rust-conversion/rust/usecases/usecases_memory_management/src/allocator.rs
FN:65,_RNvXNtCs9nYi58spymo_26usecases_memory_management9allocatorNtB2_16DefaultAllocatorNtB2_9Allocator5alloc
FN:98,_RNvXNtCs9nYi58spymo_26usecases_memory_management9allocatorNtB2_16DefaultAllocatorNtB2_9Allocator7dealloc
FN:81,_RNvXNtCs9nYi58spymo_26usecases_memory_management9allocatorNtB2_16DefaultAllocatorNtB2_9Allocator7realloc
FN:121,_RNvNtNtCs9nYi58spymo_26usecases_memory_management9allocator5testss_12test_realloc
FN:113,_RNvNtNtCs9nYi58spymo_26usecases_memory_management9allocator5testss_22test_default_allocator
FNDA:3,_RNvXNtCs9nYi58spymo_26usecases_memory_management9allocatorNtB2_16DefaultAllocatorNtB2_9Allocator5alloc
FNDA:3,_RNvXNtCs9nYi58spymo_26usecases_memory_management9allocatorNtB2_16DefaultAllocatorNtB2_9Allocator7dealloc
FNDA:1,_RNvXNtCs9nYi58spymo_26usecases_memory_management9allocatorNtB2_16DefaultAllocatorNtB2_9Allocator7realloc
FNDA:1,_RNvNtNtCs9nYi58spymo_26usecases_memory_management9allocator5testss_12test_realloc
FNDA:1,_RNvNtNtCs9nYi58spymo_26usecases_memory_management9allocator5testss_22test_default_allocator
FNF:5
FNH:5
DA:65,3
DA:66,3
DA:67,0
DA:68,3
DA:69,3
DA:70,3
DA:72,3
DA:73,3
DA:74,0
DA:76,3
DA:79,3
DA:81,1
DA:82,1
DA:83,0
DA:84,0
DA:85,1
DA:86,1
DA:87,1
DA:89,1
DA:90,1
DA:91,0
DA:93,1
DA:96,1
DA:98,3
DA:99,3
DA:100,3
DA:101,3
DA:102,3
DA:103,3
DA:104,0
DA:105,3
DA:113,1
DA:114,1
DA:115,1
DA:116,1
DA:117,1
DA:118,1
DA:121,1
DA:122,1
DA:123,1
DA:124,1
DA:125,1
DA:126,1
DA:127,1
BRF:0
BRH:0
LF:44
LH:38
end_of_record
SF:/Volumes/Files_1/iron-beam/rust-conversion/rust/usecases/usecases_memory_management/src/bestfit.rs
FN:11,_RNvMNtCs9nYi58spymo_26usecases_memory_management7bestfitNtB2_16BestFitAllocator3new
FN:17,_RNvXs_NtCs9nYi58spymo_26usecases_memory_management7bestfitNtB4_16BestFitAllocatorNtNtB6_9allocator9Allocator5alloc
FN:26,_RNvXs_NtCs9nYi58spymo_26usecases_memory_management7bestfitNtB4_16BestFitAllocatorNtNtB6_9allocator9Allocator7dealloc
FN:22,_RNvXs_NtCs9nYi58spymo_26usecases_memory_management7bestfitNtB4_16BestFitAllocatorNtNtB6_9allocator9Allocator7realloc
FNDA:0,_RNvMNtCs9nYi58spymo_26usecases_memory_management7bestfitNtB2_16BestFitAllocator3new
FNDA:0,_RNvXs_NtCs9nYi58spymo_26usecases_memory_management7bestfitNtB4_16BestFitAllocatorNtNtB6_9allocator9Allocator5alloc
FNDA:0,_RNvXs_NtCs9nYi58spymo_26usecases_memory_management7bestfitNtB4_16BestFitAllocatorNtNtB6_9allocator9Allocator7dealloc
FNDA:0,_RNvXs_NtCs9nYi58spymo_26usecases_memory_management7bestfitNtB4_16BestFitAllocatorNtNtB6_9allocator9Allocator7realloc
FNF:4
FNH:0
DA:11,0
DA:12,0
DA:13,0
DA:17,0
DA:19,0
DA:20,0
DA:22,0
DA:23,0
DA:24,0
DA:26,0
DA:27,0
DA:28,0
BRF:0
BRH:0
LF:12
LH:0
end_of_record
SF:/Volumes/Files_1/iron-beam/rust-conversion/rust/usecases/usecases_memory_management/src/firstfit.rs
FN:11,_RNvMNtCs9nYi58spymo_26usecases_memory_management8firstfitNtB2_17FirstFitAllocator3new
FN:17,_RNvXs_NtCs9nYi58spymo_26usecases_memory_management8firstfitNtB4_17FirstFitAllocatorNtNtB6_9allocator9Allocator5alloc
FN:26,_RNvXs_NtCs9nYi58spymo_26usecases_memory_management8firstfitNtB4_17FirstFitAllocatorNtNtB6_9allocator9Allocator7dealloc
FN:22,_RNvXs_NtCs9nYi58spymo_26usecases_memory_management8firstfitNtB4_17FirstFitAllocatorNtNtB6_9allocator9Allocator7realloc
FNDA:0,_RNvMNtCs9nYi58spymo_26usecases_memory_management8firstfitNtB2_17FirstFitAllocator3new
FNDA:0,_RNvXs_NtCs9nYi58spymo_26usecases_memory_management8firstfitNtB4_17FirstFitAllocatorNtNtB6_9allocator9Allocator5alloc
FNDA:0,_RNvXs_NtCs9nYi58spymo_26usecases_memory_management8firstfitNtB4_17FirstFitAllocatorNtNtB6_9allocator9Allocator7dealloc
FNDA:0,_RNvXs_NtCs9nYi58spymo_26usecases_memory_management8firstfitNtB4_17FirstFitAllocatorNtNtB6_9allocator9Allocator7realloc
FNF:4
FNH:0
DA:11,0
DA:12,0
DA:13,0
DA:17,0
DA:19,0
DA:20,0
DA:22,0
DA:23,0
DA:24,0
DA:26,0
DA:27,0
DA:28,0
BRF:0
BRH:0
LF:12
LH:0
end_of_record
SF:/Volumes/Files_1/iron-beam/rust-conversion/rust/usecases/usecases_memory_management/src/goodfit.rs
FN:43,_RNvNtNtCs9nYi58spymo_26usecases_memory_management7goodfit5testss_22test_goodfit_allocator
FN:15,_RNvMNtCs9nYi58spymo_26usecases_memory_management7goodfitNtB2_16GoodFitAllocator3new
FN:21,_RNvXs_NtCs9nYi58spymo_26usecases_memory_management7goodfitNtB4_16GoodFitAllocatorNtNtB6_9allocator9Allocator5alloc
FN:32,_RNvXs_NtCs9nYi58spymo_26usecases_memory_management7goodfitNtB4_16GoodFitAllocatorNtNtB6_9allocator9Allocator7dealloc
FN:27,_RNvXs_NtCs9nYi58spymo_26usecases_memory_management7goodfitNtB4_16GoodFitAllocatorNtNtB6_9allocator9Allocator7realloc
FNDA:1,_RNvNtNtCs9nYi58spymo_26usecases_memory_management7goodfit5testss_22test_goodfit_allocator
FNDA:1,_RNvMNtCs9nYi58spymo_26usecases_memory_management7goodfitNtB2_16GoodFitAllocator3new
FNDA:1,_RNvXs_NtCs9nYi58spymo_26usecases_memory_management7goodfitNtB4_16GoodFitAllocatorNtNtB6_9allocator9Allocator5alloc
FNDA:1,_RNvXs_NtCs9nYi58spymo_26usecases_memory_management7goodfitNtB4_16GoodFitAllocatorNtNtB6_9allocator9Allocator7dealloc
FNDA:0,_RNvXs_NtCs9nYi58spymo_26usecases_memory_management7goodfitNtB4_16GoodFitAllocatorNtNtB6_9allocator9Allocator7realloc
FNF:5
FNH:4
DA:15,1
DA:16,1
DA:17,1
DA:21,1
DA:24,1
DA:25,1
DA:27,0
DA:29,0
DA:30,0
DA:32,1
DA:34,1
DA:35,1
DA:43,1
DA:44,1
DA:45,1
DA:46,1
DA:47,1
DA:48,1
BRF:0
BRH:0
LF:18
LH:15
end_of_record
SF:/Volumes/Files_1/iron-beam/rust-conversion/rust/usecases/usecases_process_management/src/process_dict.rs
FN:27,_RNvMNtCsdq1roeWRTE7_27usecases_process_management12process_dictNtB2_11ProcessDict3get
FN:15,_RNvMNtCsdq1roeWRTE7_27usecases_process_management12process_dictNtB2_11ProcessDict3new
FN:22,_RNvMNtCsdq1roeWRTE7_27usecases_process_management12process_dictNtB2_11ProcessDict3put
FN:37,_RNvNtNtCsdq1roeWRTE7_27usecases_process_management12process_dict5testss_17test_process_dict
FNDA:1,_RNvMNtCsdq1roeWRTE7_27usecases_process_management12process_dictNtB2_11ProcessDict3get
FNDA:1,_RNvMNtCsdq1roeWRTE7_27usecases_process_management12process_dictNtB2_11ProcessDict3new
FNDA:1,_RNvMNtCsdq1roeWRTE7_27usecases_process_management12process_dictNtB2_11ProcessDict3put
FNDA:1,_RNvNtNtCsdq1roeWRTE7_27usecases_process_management12process_dict5testss_17test_process_dict
FNF:4
FNH:4
DA:15,1
DA:16,1
DA:17,1
DA:18,1
DA:19,1
DA:22,1
DA:23,1
DA:24,1
DA:27,1
DA:28,1
DA:29,1
DA:37,1
DA:38,1
DA:39,1
DA:40,1
DA:41,1
BRF:0
BRH:0
LF:16
LH:16
end_of_record
SF:/Volumes/Files_1/iron-beam/rust-conversion/rust/usecases/usecases_process_management/src/process_dump.rs
FN:22,_RNvNtNtCsdq1roeWRTE7_27usecases_process_management12process_dump5testss_17test_process_dump
FN:11,_RNvMNtCsdq1roeWRTE7_27usecases_process_management12process_dumpNtB2_11ProcessDump4dump
FNDA:1,_RNvNtNtCsdq1roeWRTE7_27usecases_process_management12process_dump5testss_17test_process_dump
FNDA:1,_RNvMNtCsdq1roeWRTE7_27usecases_process_management12process_dumpNtB2_11ProcessDump4dump
FNF:2
FNH:2
DA:11,1
DA:13,1
DA:14,1
DA:22,1
DA:23,1
DA:24,1
DA:25,1
BRF:0
BRH:0
LF:7
LH:7
end_of_record
SF:/Volumes/Files_1/iron-beam/rust-conversion/rust/usecases/usecases_process_management/src/process_lock.rs
FN:74,_RNvNtNtCsdq1roeWRTE7_27usecases_process_management12process_lock5testss_17test_process_lock
FN:22,_RNvMNtCsdq1roeWRTE7_27usecases_process_management12process_lockNtB2_11ProcessLock3new
FN:34,_RNvMNtCsdq1roeWRTE7_27usecases_process_management12process_lockNtB2_11ProcessLock7acquire
FN:60,_RNvMNtCsdq1roeWRTE7_27usecases_process_management12process_lockNtB2_11ProcessLock7release
FN:38,_RNCNvMNtCsdq1roeWRTE7_27usecases_process_management12process_lockNtB4_11ProcessLock7acquire0B6_
FN:50,_RNCNvMNtCsdq1roeWRTE7_27usecases_process_management12process_lockNtB4_11ProcessLock7acquires_0B6_
FNDA:1,_RNvNtNtCsdq1roeWRTE7_27usecases_process_management12process_lock5testss_17test_process_lock
FNDA:1,_RNvMNtCsdq1roeWRTE7_27usecases_process_management12process_lockNtB2_11ProcessLock3new
FNDA:1,_RNvMNtCsdq1roeWRTE7_27usecases_process_management12process_lockNtB2_11ProcessLock7acquire
FNDA:1,_RNvMNtCsdq1roeWRTE7_27usecases_process_management12process_lockNtB2_11ProcessLock7release
FNDA:1,_RNCNvMNtCsdq1roeWRTE7_27usecases_process_management12process_lockNtB4_11ProcessLock7acquire0B6_
FNDA:0,_RNCNvMNtCsdq1roeWRTE7_27usecases_process_management12process_lockNtB4_11ProcessLock7acquires_0B6_
FNF:6
FNH:5
DA:22,1
DA:23,1
DA:24,1
DA:25,1
DA:26,1
DA:27,1
DA:34,1
DA:35,1
DA:36,1
DA:38,1
DA:39,1
DA:41,1
DA:43,0
DA:45,0
DA:46,0
DA:47,0
DA:48,0
DA:50,0
DA:51,1
DA:53,1
DA:54,1
DA:60,1
DA:61,1
DA:62,1
DA:63,1
DA:64,1
DA:65,1
DA:66,1
DA:74,1
DA:75,1
DA:76,1
DA:77,1
DA:78,1
BRF:0
BRH:0
LF:34
LH:27
end_of_record