SF:/Volumes/Files_1/iron-beam/rust-conversion/rust/entities/entities_io_operations/src/export.rs
FN:25,_RNvMNtCsiqbJlScRaBi_22entities_io_operations6exportNtB2_3Mfa3new
FN:34,_RNvMNtCsiqbJlScRaBi_22entities_io_operations6exportNtB2_3Mfa4hash
FN:222,_RNvMs2_NtCsiqbJlScRaBi_22entities_io_operations6exportNtB5_11ExportTable10table_size
FN:120,_RNvMs2_NtCsiqbJlScRaBi_22entities_io_operations6exportNtB5_11ExportTable10with_limit
FN:230,_RNvMs2_NtCsiqbJlScRaBi_22entities_io_operations6exportNtB5_11ExportTable11entry_bytes
FN:196,_RNvMs2_NtCsiqbJlScRaBi_22entities_io_operations6exportNtB5_11ExportTable16get_or_make_stub
FN:138,_RNvMs2_NtCsiqbJlScRaBi_22entities_io_operations6exportNtB5_11ExportTable3get
FN:110,_RNvMs2_NtCsiqbJlScRaBi_22entities_io_operations6exportNtB5_11ExportTable3new
FN:154,_RNvMs2_NtCsiqbJlScRaBi_22entities_io_operations6exportNtB5_11ExportTable3put
FN:205,_RNvMs2_NtCsiqbJlScRaBi_22entities_io_operations6exportNtB5_11ExportTable4list
FN:280,_RNvMs2_NtCsiqbJlScRaBi_22entities_io_operations6exportNtB5_11ExportTable5clear
FN:245,_RNvMs2_NtCsiqbJlScRaBi_22entities_io_operations6exportNtB5_11ExportTable6remove
FN:272,_RNvMs2_NtCsiqbJlScRaBi_22entities_io_operations6exportNtB5_11ExportTable8contains
FN:214,_RNvMs2_NtCsiqbJlScRaBi_22entities_io_operations6exportNtB5_11ExportTable9list_size
FN:55,_RNvMs_NtCsiqbJlScRaBi_22entities_io_operations6exportNtB4_6Export3new
FN:78,_RNvMs_NtCsiqbJlScRaBi_22entities_io_operations6exportNtB4_6Export4hash
FN:73,_RNvMs_NtCsiqbJlScRaBi_22entities_io_operations6exportNtB4_6Export6is_bif
FN:64,_RNvMs_NtCsiqbJlScRaBi_22entities_io_operations6exportNtB4_6Export7new_bif
FN:84,_RNvXs0_NtCsiqbJlScRaBi_22entities_io_operations6exportNtB5_6ExportNtNtCsksJIhyblnkX_4core3cmp9PartialEq2eq
FN:291,_RNvXs3_NtCsiqbJlScRaBi_22entities_io_operations6exportNtB5_11ExportTableNtNtCsksJIhyblnkX_4core7default7Default7default
FN:324,_RNvNtNtCsiqbJlScRaBi_22entities_io_operations6export5testss_13test_mfa_hash
FN:354,_RNvNtNtCsiqbJlScRaBi_22entities_io_operations6export5testss_15test_export_bif
FN:574,_RNvNtNtCsiqbJlScRaBi_22entities_io_operations6export5testss_16test_export_hash
FN:316,_RNvNtNtCsiqbJlScRaBi_22entities_io_operations6export5testss_17test_mfa_creation
FN:334,_RNvNtNtCsiqbJlScRaBi_22entities_io_operations6export5testss_17test_mfa_equality
FN:344,_RNvNtNtCsiqbJlScRaBi_22entities_io_operations6export5testss_20test_export_creation
FN:564,_RNvNtNtCsiqbJlScRaBi_22entities_io_operations6export5testss_20test_export_equality
FN:397,_RNvNtNtCsiqbJlScRaBi_22entities_io_operations6export5testss_21test_export_table_get
FN:364,_RNvNtNtCsiqbJlScRaBi_22entities_io_operations6export5testss_21test_export_table_new
FN:371,_RNvNtNtCsiqbJlScRaBi_22entities_io_operations6export5testss_21test_export_table_put
FN:431,_RNvNtNtCsiqbJlScRaBi_22entities_io_operations6export5testss_22test_export_table_list
FN:504,_RNvNtNtCsiqbJlScRaBi_22entities_io_operations6export5testss_23test_export_table_clear
FN:476,_RNvNtNtCsiqbJlScRaBi_22entities_io_operations6export5testss_24test_export_table_remove
FN:594,_RNvNtNtCsiqbJlScRaBi_22entities_io_operations6export5testss_25test_export_table_default
FN:493,_RNvNtNtCsiqbJlScRaBi_22entities_io_operations6export5testss_26test_export_table_contains
FN:443,_RNvNtNtCsiqbJlScRaBi_22entities_io_operations6export5testss_27test_export_table_list_size
FN:456,_RNvNtNtCsiqbJlScRaBi_22entities_io_operations6export5testss_28test_export_table_table_size
FN:545,_RNvNtNtCsiqbJlScRaBi_22entities_io_operations6export5testss_28test_export_table_with_limit
FN:466,_RNvNtNtCsiqbJlScRaBi_22entities_io_operations6export5testss_29test_export_table_entry_bytes
FN:386,_RNvNtNtCsiqbJlScRaBi_22entities_io_operations6export5testss_31test_export_table_put_duplicate
FN:584,_RNvNtNtCsiqbJlScRaBi_22entities_io_operations6export5testss_33test_export_convenience_functions
FN:414,_RNvNtNtCsiqbJlScRaBi_22entities_io_operations6export5testss_34test_export_table_get_or_make_stub
FN:517,_RNvNtNtCsiqbJlScRaBi_22entities_io_operations6export5testss_35test_export_table_different_arities
FN:532,_RNvNtNtCsiqbJlScRaBi_22entities_io_operations6export5testss_35test_export_table_different_modules
FN:255,_RNCNvMs2_NtCsiqbJlScRaBi_22entities_io_operations6exportNtB7_11ExportTable6remove0B9_
FN:306,_RNvNtNtCsiqbJlScRaBi_22entities_io_operations6export10export_ops20new_table_with_limit
FN:301,_RNvNtNtCsiqbJlScRaBi_22entities_io_operations6export10export_ops9new_table
FNDA:95,_RNvMNtCsiqbJlScRaBi_22entities_io_operations6exportNtB2_3Mfa3new
FNDA:55,_RNvMNtCsiqbJlScRaBi_22entities_io_operations6exportNtB2_3Mfa4hash
FNDA:21,_RNvMs2_NtCsiqbJlScRaBi_22entities_io_operations6exportNtB5_11ExportTable10table_size
FNDA:2,_RNvMs2_NtCsiqbJlScRaBi_22entities_io_operations6exportNtB5_11ExportTable10with_limit
FNDA:2,_RNvMs2_NtCsiqbJlScRaBi_22entities_io_operations6exportNtB5_11ExportTable11entry_bytes
FNDA:2,_RNvMs2_NtCsiqbJlScRaBi_22entities_io_operations6exportNtB5_11ExportTable16get_or_make_stub
FNDA:2,_RNvMs2_NtCsiqbJlScRaBi_22entities_io_operations6exportNtB5_11ExportTable3get
FNDA:16,_RNvMs2_NtCsiqbJlScRaBi_22entities_io_operations6exportNtB5_11ExportTable3new
FNDA:35,_RNvMs2_NtCsiqbJlScRaBi_22entities_io_operations6exportNtB5_11ExportTable3put
FNDA:2,_RNvMs2_NtCsiqbJlScRaBi_22entities_io_operations6exportNtB5_11ExportTable4list
FNDA:1,_RNvMs2_NtCsiqbJlScRaBi_22entities_io_operations6exportNtB5_11ExportTable5clear
FNDA:2,_RNvMs2_NtCsiqbJlScRaBi_22entities_io_operations6exportNtB5_11ExportTable6remove
FNDA:8,_RNvMs2_NtCsiqbJlScRaBi_22entities_io_operations6exportNtB5_11ExportTable8contains
FNDA:4,_RNvMs2_NtCsiqbJlScRaBi_22entities_io_operations6exportNtB5_11ExportTable9list_size
FNDA:40,_RNvMs_NtCsiqbJlScRaBi_22entities_io_operations6exportNtB4_6Export3new
FNDA:4,_RNvMs_NtCsiqbJlScRaBi_22entities_io_operations6exportNtB4_6Export4hash
FNDA:2,_RNvMs_NtCsiqbJlScRaBi_22entities_io_operations6exportNtB4_6Export6is_bif
FNDA:1,_RNvMs_NtCsiqbJlScRaBi_22entities_io_operations6exportNtB4_6Export7new_bif
FNDA:2,_RNvXs0_NtCsiqbJlScRaBi_22entities_io_operations6exportNtB5_6ExportNtNtCsksJIhyblnkX_4core3cmp9PartialEq2eq
FNDA:1,_RNvXs3_NtCsiqbJlScRaBi_22entities_io_operations6exportNtB5_11ExportTableNtNtCsksJIhyblnkX_4core7default7Default7default
FNDA:1,_RNvNtNtCsiqbJlScRaBi_22entities_io_operations6export5testss_13test_mfa_hash
FNDA:1,_RNvNtNtCsiqbJlScRaBi_22entities_io_operations6export5testss_15test_export_bif
FNDA:1,_RNvNtNtCsiqbJlScRaBi_22entities_io_operations6export5testss_16test_export_hash
FNDA:1,_RNvNtNtCsiqbJlScRaBi_22entities_io_operations6export5testss_17test_mfa_creation
FNDA:1,_RNvNtNtCsiqbJlScRaBi_22entities_io_operations6export5testss_17test_mfa_equality
FNDA:1,_RNvNtNtCsiqbJlScRaBi_22entities_io_operations6export5testss_20test_export_creation
FNDA:1,_RNvNtNtCsiqbJlScRaBi_22entities_io_operations6export5testss_20test_export_equality
FNDA:1,_RNvNtNtCsiqbJlScRaBi_22entities_io_operations6export5testss_21test_export_table_get
FNDA:1,_RNvNtNtCsiqbJlScRaBi_22entities_io_operations6export5testss_21test_export_table_new
FNDA:1,_RNvNtNtCsiqbJlScRaBi_22entities_io_operations6export5testss_21test_export_table_put
FNDA:1,_RNvNtNtCsiqbJlScRaBi_22entities_io_operations6export5testss_22test_export_table_list
FNDA:1,_RNvNtNtCsiqbJlScRaBi_22entities_io_operations6export5testss_23test_export_table_clear
FNDA:1,_RNvNtNtCsiqbJlScRaBi_22entities_io_operations6export5testss_24test_export_table_remove
FNDA:1,_RNvNtNtCsiqbJlScRaBi_22entities_io_operations6export5testss_25test_export_table_default
FNDA:1,_RNvNtNtCsiqbJlScRaBi_22entities_io_operations6export5testss_26test_export_table_contains
FNDA:1,_RNvNtNtCsiqbJlScRaBi_22entities_io_operations6export5testss_27test_export_table_list_size
FNDA:1,_RNvNtNtCsiqbJlScRaBi_22entities_io_operations6export5testss_28test_export_table_table_size
FNDA:1,_RNvNtNtCsiqbJlScRaBi_22entities_io_operations6export5testss_28test_export_table_with_limit
FNDA:1,_RNvNtNtCsiqbJlScRaBi_22entities_io_operations6export5testss_29test_export_table_entry_bytes
FNDA:1,_RNvNtNtCsiqbJlScRaBi_22entities_io_operations6export5testss_31test_export_table_put_duplicate
FNDA:1,_RNvNtNtCsiqbJlScRaBi_22entities_io_operations6export5testss_33test_export_convenience_functions
FNDA:1,_RNvNtNtCsiqbJlScRaBi_22entities_io_operations6export5testss_34test_export_table_get_or_make_stub
FNDA:1,_RNvNtNtCsiqbJlScRaBi_22entities_io_operations6export5testss_35test_export_table_different_arities
FNDA:1,_RNvNtNtCsiqbJlScRaBi_22entities_io_operations6export5testss_35test_export_table_different_modules
FNDA:2,_RNCNvMs2_NtCsiqbJlScRaBi_22entities_io_operations6exportNtB7_11ExportTable6remove0B9_
FNDA:1,_RNvNtNtCsiqbJlScRaBi_22entities_io_operations6export10export_ops20new_table_with_limit
FNDA:1,_RNvNtNtCsiqbJlScRaBi_22entities_io_operations6export10export_ops9new_table
FNF:47
FNH:47
DA:25,95
DA:26,95
DA:27,95
DA:28,95
DA:29,95
DA:30,95
DA:31,95
DA:34,55
DA:36,55
DA:37,55
DA:38,55
DA:39,55
DA:55,40
DA:56,40
DA:57,40
DA:58,40
DA:59,40
DA:60,40
DA:61,40
DA:64,1
DA:65,1
DA:66,1
DA:67,1
DA:68,1
DA:69,1
DA:70,1
DA:73,2
DA:74,2
DA:75,2
DA:78,4
DA:79,4
DA:80,4
DA:84,2
DA:85,2
DA:86,2
DA:110,16
DA:111,16
DA:112,16
DA:113,16
DA:114,16
DA:115,16
DA:116,16
DA:117,16
DA:120,2
DA:121,2
DA:122,2
DA:123,2
DA:124,2
DA:125,2
DA:126,2
DA:127,2
DA:138,2
DA:139,2
DA:140,2
DA:141,2
DA:142,2
DA:143,2
DA:154,35
DA:155,35
DA:156,35
DA:160,35
DA:161,35
DA:162,2
DA:163,33
DA:167,33
DA:168,33
DA:169,33
DA:170,33
DA:173,33
DA:175,1
DA:176,32
DA:178,32
DA:179,32
DA:180,32
DA:182,32
DA:183,35
DA:196,2
DA:198,2
DA:199,2
DA:205,2
DA:206,2
DA:207,2
DA:208,2
DA:214,4
DA:215,4
DA:216,4
DA:222,21
DA:223,21
DA:224,21
DA:230,2
DA:233,2
DA:234,2
DA:245,2
DA:246,2
DA:247,2
DA:249,2
DA:250,2
DA:251,2
DA:253,2
DA:255,2
DA:256,1
DA:257,1
DA:259,1
DA:261,2
DA:272,8
DA:273,8
DA:274,8
DA:275,8
DA:276,8
DA:277,8
DA:280,1
DA:281,1
DA:282,1
DA:283,1
DA:284,1
DA:285,1
DA:286,1
DA:287,1
DA:291,1
DA:292,1
DA:293,1
DA:301,1
DA:302,1
DA:303,1
DA:306,1
DA:307,1
DA:308,1
DA:316,1
DA:317,1
DA:318,1
DA:319,1
DA:320,1
DA:321,1
DA:324,1
DA:325,1
DA:326,1
DA:327,1
DA:329,1
DA:330,1
DA:331,1
DA:334,1
DA:335,1
DA:336,1
DA:337,1
DA:339,1
DA:340,1
DA:341,1
DA:344,1
DA:345,1
DA:346,1
DA:347,1
DA:348,1
DA:349,1
DA:350,1
DA:351,1
DA:354,1
DA:355,1
DA:356,1
DA:357,1
DA:358,1
DA:359,1
DA:360,1
DA:361,1
DA:364,1
DA:365,1
DA:366,1
DA:367,1
DA:368,1
DA:371,1
DA:372,1
DA:374,1
DA:375,1
DA:376,1
DA:377,1
DA:378,1
DA:380,1
DA:381,1
DA:382,1
DA:383,1
DA:386,1
DA:387,1
DA:389,1
DA:390,1
DA:392,1
DA:393,1
DA:394,1
DA:397,1
DA:398,1
DA:400,1
DA:402,1
DA:403,1
DA:404,1
DA:405,1
DA:406,1
DA:407,1
DA:409,1
DA:410,1
DA:411,1
DA:414,1
DA:415,1
DA:418,1
DA:419,1
DA:420,1
DA:421,1
DA:422,1
DA:425,1
DA:426,1
DA:427,1
DA:428,1
DA:431,1
DA:432,1
DA:434,1
DA:435,1
DA:436,1
DA:438,1
DA:439,1
DA:440,1
DA:443,1
DA:444,1
DA:446,1
DA:448,1
DA:449,1
DA:451,1
DA:452,1
DA:453,1
DA:456,1
DA:457,1
DA:459,1
DA:461,1
DA:462,1
DA:463,1
DA:466,1
DA:467,1
DA:469,1
DA:471,1
DA:472,1
DA:473,1
DA:476,1
DA:477,1
DA:479,1
DA:480,1
DA:482,1
DA:484,1
DA:485,1
DA:486,1
DA:488,1
DA:489,1
DA:490,1
DA:493,1
DA:494,1
DA:496,1
DA:498,1
DA:499,1
DA:500,1
DA:501,1
DA:504,1
DA:505,1
DA:507,1
DA:508,1
DA:509,1
DA:511,1
DA:512,1
DA:513,1
DA:514,1
DA:517,1
DA:518,1
DA:521,1
DA:522,1
DA:523,1
DA:525,1
DA:526,1
DA:527,1
DA:528,1
DA:529,1
DA:532,1
DA:533,1
DA:536,1
DA:537,1
DA:539,1
DA:540,1
DA:541,1
DA:542,1
DA:545,1
DA:546,1
DA:549,11
DA:550,10
DA:551,10
DA:553,1
DA:557,1
DA:560,1
DA:561,1
DA:564,1
DA:565,1
DA:566,1
DA:567,1
DA:569,1
DA:570,1
DA:571,1
DA:574,1
DA:575,1
DA:576,1
DA:577,1
DA:579,1
DA:580,1
DA:581,1
DA:584,1
DA:586,1
DA:587,1
DA:589,1
DA:590,1
DA:591,1
DA:594,1
DA:595,1
DA:596,1
DA:597,1
BRF:0
BRH:0
LF:316
LH:316
end_of_record